
examples/display/target/thumbv7em-none-eabihf/debug/microbit-async-display-example:     file format elf32-littlearm


Disassembly of section .text:

00000100 <Reset>:
                size: usize = size_of::<T>(),
            ) => runtime_add_nowrap(this, count, size)
        );

        // SAFETY: the caller must uphold the safety contract for `offset`.
        unsafe { intrinsics::offset(self, count) }
     100:	f006 fa0b 	bl	651a <DefaultPreInit>
    r.intenclr().write(|w| w.0 = 0xFFFF_FFFF);

    // Reset rxstarted, txstarted. These are used by drop to know whether a transfer was
    // stopped midway or not.
    r.events_rxstarted().write_value(0);
    r.events_txstarted().write_value(0);
     104:	480e      	ldr	r0, [pc, #56]	@ (140 <Reset+0x40>)
     106:	490f      	ldr	r1, [pc, #60]	@ (144 <Reset+0x44>)
     108:	2200      	movs	r2, #0
        }
    }
    impl<T: Copy, A: Write> Reg<T, A> {
        #[inline(always)]
        pub fn write_value(&self, val: T) {
            unsafe { (self.ptr as *mut T).write_volatile(val) }
     10a:	4281      	cmp	r1, r0
     10c:	d001      	beq.n	112 <Reset+0x12>
     10e:	c004      	stmia	r0!, {r2}
    pub unsafe fn write_volatile(self, val: T)
    where
        T: Sized,
    {
        // SAFETY: the caller must uphold the safety contract for `write_volatile`.
        unsafe { write_volatile(self, val) }
     110:	e7fb      	b.n	10a <Reset+0xa>
     112:	480d      	ldr	r0, [pc, #52]	@ (148 <Reset+0x48>)
     114:	490d      	ldr	r1, [pc, #52]	@ (14c <Reset+0x4c>)
     116:	4a0e      	ldr	r2, [pc, #56]	@ (150 <Reset+0x50>)
     118:	4281      	cmp	r1, r0
     11a:	d002      	beq.n	122 <Reset+0x22>
     11c:	ca08      	ldmia	r2!, {r3}
     11e:	c008      	stmia	r0!, {r3}
     120:	e7fa      	b.n	118 <Reset+0x18>
        unsafe { intrinsics::offset(self, count) }
     122:	480c      	ldr	r0, [pc, #48]	@ (154 <Reset+0x54>)
     124:	f44f 0170 	mov.w	r1, #15728640	@ 0xf00000
     128:	6802      	ldr	r2, [r0, #0]
     12a:	ea42 0201 	orr.w	r2, r2, r1
     12e:	6002      	str	r2, [r0, #0]
     130:	f3bf 8f4f 	dsb	sy
     134:	f3bf 8f6f 	isb	sy

    // reset all pins
    r.psel().txd().write_value(DISCONNECTED);
     138:	f001 ff22 	bl	1f80 <main>
     13c:	de00      	udf	#0
     13e:	0000      	movs	r0, r0
     140:	20000050 	.word	0x20000050
     144:	20008220 	.word	0x20008220
     148:	20000000 	.word	0x20000000
        unsafe { write_volatile(self, val) }
     14c:	20000050 	.word	0x20000050
     150:	0000edd0 	.word	0x0000edd0
     154:	e000ed88 	.word	0xe000ed88

00000158 <_ZN30microbit_async_display_example5types6Bitmap3new17h79fbfbb6e6733313E>:
    /// # Example
    /// ```ignore
    /// let bitmap = Bitmap::new(0b11100000, 3); // 3 bits set
    /// ```
    // TODO: Change input to array when const generics are fully stabilized
    pub const fn new(input: u8, nbits: usize) -> Self {
     158:	b580      	push	{r7, lr}
     15a:	466f      	mov	r7, sp
     15c:	b086      	sub	sp, #24
     15e:	9201      	str	r2, [sp, #4]
     160:	9002      	str	r0, [sp, #8]
     162:	4608      	mov	r0, r1
     164:	9003      	str	r0, [sp, #12]
     166:	f807 1c05 	strb.w	r1, [r7, #-5]
     16a:	9205      	str	r2, [sp, #20]
     16c:	2000      	movs	r0, #0
        let mut data = [0; BITMAP_WIDTH];
     16e:	f807 0c07 	strb.w	r0, [r7, #-7]
        //for i in 0..input.len() {
        if nbits < BITMAP_WORD_SIZE {
     172:	2a08      	cmp	r2, #8
     174:	d304      	bcc.n	180 <_ZN30microbit_async_display_example5types6Bitmap3new17h79fbfbb6e6733313E+0x28>
     176:	e7ff      	b.n	178 <_ZN30microbit_async_display_example5types6Bitmap3new17h79fbfbb6e6733313E+0x20>
            data[0] = input << (BITMAP_WORD_SIZE - nbits);
        } else {
            data[0] = input;
     178:	9803      	ldr	r0, [sp, #12]
     17a:	f807 0c07 	strb.w	r0, [r7, #-7]
        if nbits < BITMAP_WORD_SIZE {
     17e:	e006      	b.n	18e <_ZN30microbit_async_display_example5types6Bitmap3new17h79fbfbb6e6733313E+0x36>
            data[0] = input << (BITMAP_WORD_SIZE - nbits);
     180:	9801      	ldr	r0, [sp, #4]
     182:	f1c0 0108 	rsb	r1, r0, #8
     186:	9100      	str	r1, [sp, #0]
     188:	2808      	cmp	r0, #8
     18a:	d810      	bhi.n	1ae <_ZN30microbit_async_display_example5types6Bitmap3new17h79fbfbb6e6733313E+0x56>
     18c:	e00b      	b.n	1a6 <_ZN30microbit_async_display_example5types6Bitmap3new17h79fbfbb6e6733313E+0x4e>
        }
        //}
        Self { data, nbits }
     18e:	9801      	ldr	r0, [sp, #4]
     190:	9902      	ldr	r1, [sp, #8]
     192:	f817 2c07 	ldrb.w	r2, [r7, #-7]
     196:	f807 2c06 	strb.w	r2, [r7, #-6]
     19a:	f817 2c06 	ldrb.w	r2, [r7, #-6]
     19e:	710a      	strb	r2, [r1, #4]
     1a0:	6008      	str	r0, [r1, #0]
    }
     1a2:	b006      	add	sp, #24
     1a4:	bd80      	pop	{r7, pc}
            data[0] = input << (BITMAP_WORD_SIZE - nbits);
     1a6:	9800      	ldr	r0, [sp, #0]
     1a8:	2808      	cmp	r0, #8
     1aa:	d306      	bcc.n	1ba <_ZN30microbit_async_display_example5types6Bitmap3new17h79fbfbb6e6733313E+0x62>
     1ac:	e00d      	b.n	1ca <_ZN30microbit_async_display_example5types6Bitmap3new17h79fbfbb6e6733313E+0x72>
     1ae:	f64b 208c 	movw	r0, #47756	@ 0xba8c
     1b2:	f2c0 0000 	movt	r0, #0
     1b6:	f00a ffcb 	bl	b150 <_ZN4core9panicking11panic_const24panic_const_sub_overflow17ha4c339b91653944eE>
     1ba:	9803      	ldr	r0, [sp, #12]
     1bc:	9900      	ldr	r1, [sp, #0]
     1be:	f001 0107 	and.w	r1, r1, #7
     1c2:	4088      	lsls	r0, r1
     1c4:	f807 0c07 	strb.w	r0, [r7, #-7]
        if nbits < BITMAP_WORD_SIZE {
     1c8:	e7e1      	b.n	18e <_ZN30microbit_async_display_example5types6Bitmap3new17h79fbfbb6e6733313E+0x36>
            data[0] = input << (BITMAP_WORD_SIZE - nbits);
     1ca:	f64b 209c 	movw	r0, #47772	@ 0xba9c
     1ce:	f2c0 0000 	movt	r0, #0
     1d2:	f00a fff6 	bl	b1c2 <_ZN4core9panicking11panic_const24panic_const_shl_overflow17h947041eb91815fb2E>

000001d6 <_ZN30microbit_async_display_example5types6Bitmap5empty17h671b31d8a4f10c17E>:
    ///
    /// # Example
    /// ```ignore
    /// let bitmap = Bitmap::empty(5); // 5-bit empty bitmap
    /// ```
    pub const fn empty(nbits: usize) -> Self {
     1d6:	b580      	push	{r7, lr}
     1d8:	466f      	mov	r7, sp
     1da:	b082      	sub	sp, #8
     1dc:	9101      	str	r1, [sp, #4]
     1de:	2200      	movs	r2, #0
        Self { data: [0; 1], nbits }
     1e0:	f807 2c05 	strb.w	r2, [r7, #-5]
     1e4:	f817 2c05 	ldrb.w	r2, [r7, #-5]
     1e8:	7102      	strb	r2, [r0, #4]
     1ea:	6001      	str	r1, [r0, #0]
    }
     1ec:	b002      	add	sp, #8
     1ee:	bd80      	pop	{r7, pc}

000001f0 <_ZN30microbit_async_display_example5types6Bitmap9clear_all17h8a2ff72cfaf55b17E>:
    /// # Example
    /// ```ignore
    /// let mut bitmap = Bitmap::new(0b11111111, 8);
    /// bitmap.clear_all(); // All bits now 0
    /// ```
    pub fn clear_all(&mut self) {
     1f0:	b580      	push	{r7, lr}
     1f2:	466f      	mov	r7, sp
     1f4:	b088      	sub	sp, #32
     1f6:	9001      	str	r0, [sp, #4]
     1f8:	9006      	str	r0, [sp, #24]
     1fa:	2000      	movs	r0, #0
     1fc:	2101      	movs	r1, #1
        for i in 0..self.data.len() {
     1fe:	f009 ffd1 	bl	a1a4 <_ZN63_$LT$I$u20$as$u20$core..iter..traits..collect..IntoIterator$GT$9into_iter17h0afde0faa91357dbE>
     202:	9002      	str	r0, [sp, #8]
     204:	9103      	str	r1, [sp, #12]
     206:	e7ff      	b.n	208 <_ZN30microbit_async_display_example5types6Bitmap9clear_all17h8a2ff72cfaf55b17E+0x18>
     208:	a802      	add	r0, sp, #8
     20a:	f009 ffc3 	bl	a194 <_ZN4core4iter5range101_$LT$impl$u20$core..iter..traits..iterator..Iterator$u20$for$u20$core..ops..range..Range$LT$A$GT$$GT$4next17hd1eed7027fe23b7aE>
     20e:	9004      	str	r0, [sp, #16]
     210:	9105      	str	r1, [sp, #20]
     212:	9804      	ldr	r0, [sp, #16]
     214:	07c0      	lsls	r0, r0, #31
     216:	b128      	cbz	r0, 224 <_ZN30microbit_async_display_example5types6Bitmap9clear_all17h8a2ff72cfaf55b17E+0x34>
     218:	e7ff      	b.n	21a <_ZN30microbit_async_display_example5types6Bitmap9clear_all17h8a2ff72cfaf55b17E+0x2a>
     21a:	9805      	ldr	r0, [sp, #20]
     21c:	9000      	str	r0, [sp, #0]
     21e:	9007      	str	r0, [sp, #28]
            self.data[i] = 0;
     220:	b110      	cbz	r0, 228 <_ZN30microbit_async_display_example5types6Bitmap9clear_all17h8a2ff72cfaf55b17E+0x38>
     222:	e007      	b.n	234 <_ZN30microbit_async_display_example5types6Bitmap9clear_all17h8a2ff72cfaf55b17E+0x44>
        }
    }
     224:	b008      	add	sp, #32
     226:	bd80      	pop	{r7, pc}
            self.data[i] = 0;
     228:	9801      	ldr	r0, [sp, #4]
     22a:	9900      	ldr	r1, [sp, #0]
     22c:	4401      	add	r1, r0
     22e:	2000      	movs	r0, #0
     230:	7108      	strb	r0, [r1, #4]
        for i in 0..self.data.len() {
     232:	e7e9      	b.n	208 <_ZN30microbit_async_display_example5types6Bitmap9clear_all17h8a2ff72cfaf55b17E+0x18>
            self.data[i] = 0;
     234:	9800      	ldr	r0, [sp, #0]
     236:	f64b 22ac 	movw	r2, #47788	@ 0xbaac
     23a:	f2c0 0200 	movt	r2, #0
     23e:	2101      	movs	r1, #1
     240:	f00a f95a 	bl	a4f8 <_ZN4core9panicking18panic_bounds_check17hbfa4b59d350ae7c0E>

00000244 <_ZN30microbit_async_display_example5types6Bitmap6is_set17h5aea258f4b7982f1E>:
    /// ```ignore
    /// let bitmap = Bitmap::new(0b10100000, 3);
    /// assert!(bitmap.is_set(0)); // First bit is set
    /// assert!(!bitmap.is_set(1)); // Second bit is clear
    /// ```
    pub fn is_set(&self, bit: usize) -> bool {
     244:	b580      	push	{r7, lr}
     246:	466f      	mov	r7, sp
     248:	b08a      	sub	sp, #40	@ 0x28
     24a:	9104      	str	r1, [sp, #16]
     24c:	9005      	str	r0, [sp, #20]
     24e:	9006      	str	r0, [sp, #24]
     250:	9107      	str	r1, [sp, #28]
        assert!(bit < self.nbits);
     252:	6800      	ldr	r0, [r0, #0]
     254:	4281      	cmp	r1, r0
     256:	d30b      	bcc.n	270 <_ZN30microbit_async_display_example5types6Bitmap6is_set17h5aea258f4b7982f1E+0x2c>
     258:	e7ff      	b.n	25a <_ZN30microbit_async_display_example5types6Bitmap6is_set17h5aea258f4b7982f1E+0x16>
     25a:	f64b 20bc 	movw	r0, #47804	@ 0xbabc
     25e:	f2c0 0000 	movt	r0, #0
     262:	f64b 22e0 	movw	r2, #47840	@ 0xbae0
     266:	f2c0 0200 	movt	r2, #0
     26a:	2122      	movs	r1, #34	@ 0x22
     26c:	f00a f8fd 	bl	a46a <_ZN4core9panicking5panic17h5284cc5a37f28ed9E>
        let idx: usize = bit / BITMAP_WORD_SIZE;
     270:	9904      	ldr	r1, [sp, #16]
     272:	08c8      	lsrs	r0, r1, #3
     274:	4602      	mov	r2, r0
     276:	9202      	str	r2, [sp, #8]
     278:	9008      	str	r0, [sp, #32]
        let p: usize = bit % BITMAP_WORD_SIZE;
     27a:	f001 0107 	and.w	r1, r1, #7
     27e:	460a      	mov	r2, r1
     280:	9203      	str	r2, [sp, #12]
     282:	9109      	str	r1, [sp, #36]	@ 0x24
        (self.data[idx] & (1 << ((BITMAP_WORD_SIZE - 1) - p))) != 0
     284:	b960      	cbnz	r0, 2a0 <_ZN30microbit_async_display_example5types6Bitmap6is_set17h5aea258f4b7982f1E+0x5c>
     286:	e7ff      	b.n	288 <_ZN30microbit_async_display_example5types6Bitmap6is_set17h5aea258f4b7982f1E+0x44>
     288:	9803      	ldr	r0, [sp, #12]
     28a:	9905      	ldr	r1, [sp, #20]
     28c:	9a02      	ldr	r2, [sp, #8]
     28e:	4411      	add	r1, r2
     290:	7909      	ldrb	r1, [r1, #4]
     292:	9100      	str	r1, [sp, #0]
     294:	f1c0 0107 	rsb	r1, r0, #7
     298:	9101      	str	r1, [sp, #4]
     29a:	2807      	cmp	r0, #7
     29c:	d80c      	bhi.n	2b8 <_ZN30microbit_async_display_example5types6Bitmap6is_set17h5aea258f4b7982f1E+0x74>
     29e:	e007      	b.n	2b0 <_ZN30microbit_async_display_example5types6Bitmap6is_set17h5aea258f4b7982f1E+0x6c>
     2a0:	9802      	ldr	r0, [sp, #8]
     2a2:	f64b 22f0 	movw	r2, #47856	@ 0xbaf0
     2a6:	f2c0 0200 	movt	r2, #0
     2aa:	2101      	movs	r1, #1
     2ac:	f00a f924 	bl	a4f8 <_ZN4core9panicking18panic_bounds_check17hbfa4b59d350ae7c0E>
     2b0:	9801      	ldr	r0, [sp, #4]
     2b2:	2808      	cmp	r0, #8
     2b4:	d306      	bcc.n	2c4 <_ZN30microbit_async_display_example5types6Bitmap6is_set17h5aea258f4b7982f1E+0x80>
     2b6:	e00f      	b.n	2d8 <_ZN30microbit_async_display_example5types6Bitmap6is_set17h5aea258f4b7982f1E+0x94>
     2b8:	f64b 3000 	movw	r0, #47872	@ 0xbb00
     2bc:	f2c0 0000 	movt	r0, #0
     2c0:	f00a ff46 	bl	b150 <_ZN4core9panicking11panic_const24panic_const_sub_overflow17ha4c339b91653944eE>
     2c4:	9800      	ldr	r0, [sp, #0]
     2c6:	9901      	ldr	r1, [sp, #4]
     2c8:	f001 0107 	and.w	r1, r1, #7
     2cc:	b2c0      	uxtb	r0, r0
     2ce:	40c8      	lsrs	r0, r1
    }
     2d0:	f000 0001 	and.w	r0, r0, #1
     2d4:	b00a      	add	sp, #40	@ 0x28
     2d6:	bd80      	pop	{r7, pc}
        (self.data[idx] & (1 << ((BITMAP_WORD_SIZE - 1) - p))) != 0
     2d8:	f64b 3010 	movw	r0, #47888	@ 0xbb10
     2dc:	f2c0 0000 	movt	r0, #0
     2e0:	f00a ff6f 	bl	b1c2 <_ZN4core9panicking11panic_const24panic_const_shl_overflow17h947041eb91815fb2E>

000002e4 <_ZN30microbit_async_display_example5types6Bitmap10shift_left17h5fb52be716cf284fE>:
    /// # Example
    /// ```ignore
    /// let mut bitmap = Bitmap::new(0b11000000, 8);
    /// bitmap.shift_left(2); // Now 0b00000000 (bits shifted out)
    /// ```
    pub fn shift_left(&mut self, nbits: usize) {
     2e4:	b580      	push	{r7, lr}
     2e6:	466f      	mov	r7, sp
     2e8:	b088      	sub	sp, #32
     2ea:	9101      	str	r1, [sp, #4]
     2ec:	9005      	str	r0, [sp, #20]
     2ee:	9106      	str	r1, [sp, #24]
        for b in self.data.iter_mut() {
     2f0:	3004      	adds	r0, #4
     2f2:	2101      	movs	r1, #1
     2f4:	f006 fd66 	bl	6dc4 <_ZN4core5slice29_$LT$impl$u20$$u5b$T$u5d$$GT$8iter_mut17h46b3d0894c23207cE>
     2f8:	f000 faf8 	bl	8ec <_ZN63_$LT$I$u20$as$u20$core..iter..traits..collect..IntoIterator$GT$9into_iter17hca4b17596e89abbbE>
     2fc:	9002      	str	r0, [sp, #8]
     2fe:	9103      	str	r1, [sp, #12]
     300:	e7ff      	b.n	302 <_ZN30microbit_async_display_example5types6Bitmap10shift_left17h5fb52be716cf284fE+0x1e>
     302:	a802      	add	r0, sp, #8
     304:	f006 fd32 	bl	6d6c <_ZN94_$LT$core..slice..iter..IterMut$LT$T$GT$$u20$as$u20$core..iter..traits..iterator..Iterator$GT$4next17hbd1eb53e27a36510E>
     308:	9004      	str	r0, [sp, #16]
     30a:	9804      	ldr	r0, [sp, #16]
     30c:	b138      	cbz	r0, 31e <_ZN30microbit_async_display_example5types6Bitmap10shift_left17h5fb52be716cf284fE+0x3a>
     30e:	e7ff      	b.n	310 <_ZN30microbit_async_display_example5types6Bitmap10shift_left17h5fb52be716cf284fE+0x2c>
     310:	9801      	ldr	r0, [sp, #4]
     312:	9904      	ldr	r1, [sp, #16]
     314:	9100      	str	r1, [sp, #0]
     316:	9107      	str	r1, [sp, #28]
            *b <<= nbits;
     318:	2808      	cmp	r0, #8
     31a:	d302      	bcc.n	322 <_ZN30microbit_async_display_example5types6Bitmap10shift_left17h5fb52be716cf284fE+0x3e>
     31c:	e009      	b.n	332 <_ZN30microbit_async_display_example5types6Bitmap10shift_left17h5fb52be716cf284fE+0x4e>
        }
    }
     31e:	b008      	add	sp, #32
     320:	bd80      	pop	{r7, pc}
            *b <<= nbits;
     322:	9900      	ldr	r1, [sp, #0]
     324:	9a01      	ldr	r2, [sp, #4]
     326:	7808      	ldrb	r0, [r1, #0]
     328:	f002 0207 	and.w	r2, r2, #7
     32c:	4090      	lsls	r0, r2
     32e:	7008      	strb	r0, [r1, #0]
        for b in self.data.iter_mut() {
     330:	e7e7      	b.n	302 <_ZN30microbit_async_display_example5types6Bitmap10shift_left17h5fb52be716cf284fE+0x1e>
            *b <<= nbits;
     332:	f64b 3020 	movw	r0, #47904	@ 0xbb20
     336:	f2c0 0000 	movt	r0, #0
     33a:	f00a ff42 	bl	b1c2 <_ZN4core9panicking11panic_const24panic_const_shl_overflow17h947041eb91815fb2E>

0000033e <_ZN30microbit_async_display_example5types6Bitmap11shift_right17h116d0bbee2ff2972E>:
    /// # Example
    /// ```ignore
    /// let mut bitmap = Bitmap::new(0b11000000, 8);
    /// bitmap.shift_right(2); // Now 0b00110000
    /// ```
    pub fn shift_right(&mut self, nbits: usize) {
     33e:	b580      	push	{r7, lr}
     340:	466f      	mov	r7, sp
     342:	b088      	sub	sp, #32
     344:	9101      	str	r1, [sp, #4]
     346:	9005      	str	r0, [sp, #20]
     348:	9106      	str	r1, [sp, #24]
        for b in self.data.iter_mut() {
     34a:	3004      	adds	r0, #4
     34c:	2101      	movs	r1, #1
     34e:	f006 fd39 	bl	6dc4 <_ZN4core5slice29_$LT$impl$u20$$u5b$T$u5d$$GT$8iter_mut17h46b3d0894c23207cE>
     352:	f000 facb 	bl	8ec <_ZN63_$LT$I$u20$as$u20$core..iter..traits..collect..IntoIterator$GT$9into_iter17hca4b17596e89abbbE>
     356:	9002      	str	r0, [sp, #8]
     358:	9103      	str	r1, [sp, #12]
     35a:	e7ff      	b.n	35c <_ZN30microbit_async_display_example5types6Bitmap11shift_right17h116d0bbee2ff2972E+0x1e>
     35c:	a802      	add	r0, sp, #8
     35e:	f006 fd05 	bl	6d6c <_ZN94_$LT$core..slice..iter..IterMut$LT$T$GT$$u20$as$u20$core..iter..traits..iterator..Iterator$GT$4next17hbd1eb53e27a36510E>
     362:	9004      	str	r0, [sp, #16]
     364:	9804      	ldr	r0, [sp, #16]
     366:	b138      	cbz	r0, 378 <_ZN30microbit_async_display_example5types6Bitmap11shift_right17h116d0bbee2ff2972E+0x3a>
     368:	e7ff      	b.n	36a <_ZN30microbit_async_display_example5types6Bitmap11shift_right17h116d0bbee2ff2972E+0x2c>
     36a:	9801      	ldr	r0, [sp, #4]
     36c:	9904      	ldr	r1, [sp, #16]
     36e:	9100      	str	r1, [sp, #0]
     370:	9107      	str	r1, [sp, #28]
            *b >>= nbits;
     372:	2808      	cmp	r0, #8
     374:	d302      	bcc.n	37c <_ZN30microbit_async_display_example5types6Bitmap11shift_right17h116d0bbee2ff2972E+0x3e>
     376:	e009      	b.n	38c <_ZN30microbit_async_display_example5types6Bitmap11shift_right17h116d0bbee2ff2972E+0x4e>
        }
    }
     378:	b008      	add	sp, #32
     37a:	bd80      	pop	{r7, pc}
            *b >>= nbits;
     37c:	9900      	ldr	r1, [sp, #0]
     37e:	9a01      	ldr	r2, [sp, #4]
     380:	7808      	ldrb	r0, [r1, #0]
     382:	f002 0207 	and.w	r2, r2, #7
     386:	40d0      	lsrs	r0, r2
     388:	7008      	strb	r0, [r1, #0]
        for b in self.data.iter_mut() {
     38a:	e7e7      	b.n	35c <_ZN30microbit_async_display_example5types6Bitmap11shift_right17h116d0bbee2ff2972E+0x1e>
            *b >>= nbits;
     38c:	f64b 3030 	movw	r0, #47920	@ 0xbb30
     390:	f2c0 0000 	movt	r0, #0
     394:	f00a ff02 	bl	b19c <_ZN4core9panicking11panic_const24panic_const_shr_overflow17h3b7efafe8b312b78E>

00000398 <_ZN30microbit_async_display_example5types6Bitmap2or17h018d5e962f7263c6E>:
    /// ```ignore
    /// let mut bitmap1 = Bitmap::new(0b11000000, 8);
    /// let bitmap2 = Bitmap::new(0b00110000, 8);
    /// bitmap1.or(&bitmap2); // Result: 0b11110000
    /// ```
    pub fn or(&mut self, other: &Bitmap) {
     398:	b580      	push	{r7, lr}
     39a:	466f      	mov	r7, sp
     39c:	b08c      	sub	sp, #48	@ 0x30
     39e:	9103      	str	r1, [sp, #12]
     3a0:	9004      	str	r0, [sp, #16]
     3a2:	9009      	str	r0, [sp, #36]	@ 0x24
     3a4:	910a      	str	r1, [sp, #40]	@ 0x28
     3a6:	2000      	movs	r0, #0
     3a8:	2101      	movs	r1, #1
        for i in 0..self.data.len() {
     3aa:	f009 fefb 	bl	a1a4 <_ZN63_$LT$I$u20$as$u20$core..iter..traits..collect..IntoIterator$GT$9into_iter17h0afde0faa91357dbE>
     3ae:	9005      	str	r0, [sp, #20]
     3b0:	9106      	str	r1, [sp, #24]
     3b2:	e7ff      	b.n	3b4 <_ZN30microbit_async_display_example5types6Bitmap2or17h018d5e962f7263c6E+0x1c>
     3b4:	a805      	add	r0, sp, #20
     3b6:	f009 feed 	bl	a194 <_ZN4core4iter5range101_$LT$impl$u20$core..iter..traits..iterator..Iterator$u20$for$u20$core..ops..range..Range$LT$A$GT$$GT$4next17hd1eed7027fe23b7aE>
     3ba:	9007      	str	r0, [sp, #28]
     3bc:	9108      	str	r1, [sp, #32]
     3be:	9807      	ldr	r0, [sp, #28]
     3c0:	07c0      	lsls	r0, r0, #31
     3c2:	b128      	cbz	r0, 3d0 <_ZN30microbit_async_display_example5types6Bitmap2or17h018d5e962f7263c6E+0x38>
     3c4:	e7ff      	b.n	3c6 <_ZN30microbit_async_display_example5types6Bitmap2or17h018d5e962f7263c6E+0x2e>
     3c6:	9808      	ldr	r0, [sp, #32]
     3c8:	9002      	str	r0, [sp, #8]
     3ca:	900b      	str	r0, [sp, #44]	@ 0x2c
            self.data[i] |= other.data[i];
     3cc:	b110      	cbz	r0, 3d4 <_ZN30microbit_async_display_example5types6Bitmap2or17h018d5e962f7263c6E+0x3c>
     3ce:	e008      	b.n	3e2 <_ZN30microbit_async_display_example5types6Bitmap2or17h018d5e962f7263c6E+0x4a>
        }
    }
     3d0:	b00c      	add	sp, #48	@ 0x30
     3d2:	bd80      	pop	{r7, pc}
            self.data[i] |= other.data[i];
     3d4:	9802      	ldr	r0, [sp, #8]
     3d6:	9903      	ldr	r1, [sp, #12]
     3d8:	4401      	add	r1, r0
     3da:	7909      	ldrb	r1, [r1, #4]
     3dc:	9101      	str	r1, [sp, #4]
     3de:	b140      	cbz	r0, 3f2 <_ZN30microbit_async_display_example5types6Bitmap2or17h018d5e962f7263c6E+0x5a>
     3e0:	e00f      	b.n	402 <_ZN30microbit_async_display_example5types6Bitmap2or17h018d5e962f7263c6E+0x6a>
     3e2:	9802      	ldr	r0, [sp, #8]
     3e4:	f64b 3240 	movw	r2, #47936	@ 0xbb40
     3e8:	f2c0 0200 	movt	r2, #0
     3ec:	2101      	movs	r1, #1
     3ee:	f00a f883 	bl	a4f8 <_ZN4core9panicking18panic_bounds_check17hbfa4b59d350ae7c0E>
     3f2:	9a01      	ldr	r2, [sp, #4]
     3f4:	9804      	ldr	r0, [sp, #16]
     3f6:	9902      	ldr	r1, [sp, #8]
     3f8:	4401      	add	r1, r0
     3fa:	7908      	ldrb	r0, [r1, #4]
     3fc:	4310      	orrs	r0, r2
     3fe:	7108      	strb	r0, [r1, #4]
        for i in 0..self.data.len() {
     400:	e7d8      	b.n	3b4 <_ZN30microbit_async_display_example5types6Bitmap2or17h018d5e962f7263c6E+0x1c>
            self.data[i] |= other.data[i];
     402:	9802      	ldr	r0, [sp, #8]
     404:	f64b 3250 	movw	r2, #47952	@ 0xbb50
     408:	f2c0 0200 	movt	r2, #0
     40c:	2101      	movs	r1, #1
     40e:	f00a f873 	bl	a4f8 <_ZN4core9panicking18panic_bounds_check17hbfa4b59d350ae7c0E>

00000412 <_ZN30microbit_async_display_example5types10Brightness5level17hec1be1fa7303eef2E>:
    /// # Example
    /// ```ignore
    /// let brightness = Brightness::new(7);
    /// assert_eq!(brightness.level(), 7);
    /// ```
    pub fn level(&self) -> u8 {
     412:	b580      	push	{r7, lr}
     414:	466f      	mov	r7, sp
     416:	b081      	sub	sp, #4
     418:	9000      	str	r0, [sp, #0]
        self.0
    }
     41a:	7800      	ldrb	r0, [r0, #0]
     41c:	b001      	add	sp, #4
     41e:	bd80      	pop	{r7, pc}

00000420 <_ZN92_$LT$microbit_async_display_example..types..Brightness$u20$as$u20$core..default..Default$GT$7default17hb3a063483d781c24E>:
}

impl Default for Brightness {
    fn default() -> Self {
     420:	b580      	push	{r7, lr}
     422:	466f      	mov	r7, sp
     424:	2005      	movs	r0, #5
        Self(5)
    }
     426:	bd80      	pop	{r7, pc}

00000428 <_ZN16embassy_executor4arch6thread8Executor3run17h88665bb70e3781baE>:
        /// - a [StaticCell](https://docs.rs/static_cell/latest/static_cell/) (safe)
        /// - a `static mut` (unsafe)
        /// - a local variable in a function you know never returns (like `fn main() -> !`), upgrading its lifetime with `transmute`. (unsafe)
        ///
        /// This function never returns.
        pub fn run(&'static mut self, init: impl FnOnce(Spawner)) -> ! {
     428:	b580      	push	{r7, lr}
     42a:	466f      	mov	r7, sp
     42c:	b084      	sub	sp, #16
     42e:	9001      	str	r0, [sp, #4]
     430:	9002      	str	r0, [sp, #8]
            init(self.inner.spawner());
     432:	f009 fa24 	bl	987e <_ZN16embassy_executor3raw8Executor7spawner17hb7e0d8e9e2724e86E>
     436:	f001 fd77 	bl	1f28 <_ZN30microbit_async_display_example18__cortex_m_rt_main28_$u7b$$u7b$closure$u7d$$u7d$17h896f7c19bfe0cb50E>
     43a:	e7ff      	b.n	43c <_ZN16embassy_executor4arch6thread8Executor3run17h88665bb70e3781baE+0x14>

            loop {
                unsafe {
                    self.inner.poll();
     43c:	9801      	ldr	r0, [sp, #4]
     43e:	f009 fa16 	bl	986e <_ZN16embassy_executor3raw8Executor4poll17h19375dbfb09ee3a6E>
                    asm!("wfe");
     442:	bf20      	wfe
     444:	e7fa      	b.n	43c <_ZN16embassy_executor4arch6thread8Executor3run17h88665bb70e3781baE+0x14>

00000446 <_ZN16embassy_executor3raw20TaskStorage$LT$F$GT$4poll17ha6c24643d096382aE>:
            Some(task) => task.initialize(future),
            None => SpawnToken::new_failed(),
        }
    }

    unsafe fn poll(p: TaskRef) {
     446:	b580      	push	{r7, lr}
     448:	466f      	mov	r7, sp
     44a:	b094      	sub	sp, #80	@ 0x50
     44c:	9003      	str	r0, [sp, #12]
     44e:	900d      	str	r0, [sp, #52]	@ 0x34
        let this = &*p.as_ptr().cast::<TaskStorage<F>>();
     450:	f009 f965 	bl	971e <_ZN16embassy_executor3raw7TaskRef6as_ptr17h4e14071552633612E>
     454:	4601      	mov	r1, r0
     456:	9102      	str	r1, [sp, #8]
     458:	9013      	str	r0, [sp, #76]	@ 0x4c
     45a:	900e      	str	r0, [sp, #56]	@ 0x38

        let future = Pin::new_unchecked(this.future.as_mut());
     45c:	3020      	adds	r0, #32
     45e:	f002 fb0c 	bl	2a7a <_ZN16embassy_executor3raw4util19UninitCell$LT$T$GT$6as_mut17hdd982ef03b686451E>
     462:	4601      	mov	r1, r0
     464:	9803      	ldr	r0, [sp, #12]
     466:	9104      	str	r1, [sp, #16]
     468:	9112      	str	r1, [sp, #72]	@ 0x48
     46a:	910f      	str	r1, [sp, #60]	@ 0x3c
        let waker = waker::from_task(p);
     46c:	f009 f906 	bl	967c <_ZN16embassy_executor3raw5waker9from_task17hf8dbfc94448a63d2E>
     470:	9006      	str	r0, [sp, #24]
     472:	9107      	str	r1, [sp, #28]
     474:	a808      	add	r0, sp, #32
     476:	9005      	str	r0, [sp, #20]
     478:	a906      	add	r1, sp, #24
        let mut cx = Context::from_waker(&waker);
     47a:	f001 ffeb 	bl	2454 <_ZN4core4task4wake7Context10from_waker17hb97e09dee403d1d5E>
     47e:	9804      	ldr	r0, [sp, #16]
     480:	9905      	ldr	r1, [sp, #20]
        match future.poll(&mut cx) {
     482:	f001 fc15 	bl	1cb0 <_ZN30microbit_async_display_example21____embassy_main_task28_$u7b$$u7b$closure$u7d$$u7d$17h5f7f56bc54b55794E>
     486:	b130      	cbz	r0, 496 <_ZN16embassy_executor3raw20TaskStorage$LT$F$GT$4poll17ha6c24643d096382aE+0x50>
     488:	e7ff      	b.n	48a <_ZN16embassy_executor3raw20TaskStorage$LT$F$GT$4poll17ha6c24643d096382aE+0x44>
            Poll::Pending => {}
        }

        // the compiler is emitting a virtual call for waker drop, but we know
        // it's a noop for our waker.
        mem::forget(waker);
     48a:	9806      	ldr	r0, [sp, #24]
     48c:	9907      	ldr	r1, [sp, #28]
     48e:	f002 f9d5 	bl	283c <_ZN4core3mem6forget17h1c783cea6f02fee8E>
    }
     492:	b014      	add	sp, #80	@ 0x50
     494:	bd80      	pop	{r7, pc}
                this.future.drop_in_place();
     496:	9802      	ldr	r0, [sp, #8]
     498:	3020      	adds	r0, #32
     49a:	f002 fad0 	bl	2a3e <_ZN16embassy_executor3raw4util19UninitCell$LT$T$GT$13drop_in_place17hcaf4ca6de9f39e37E>
     49e:	9802      	ldr	r0, [sp, #8]
                this.raw.poll_fn.set(Some(poll_exited));
     4a0:	301c      	adds	r0, #28
     4a2:	f249 712d 	movw	r1, #38701	@ 0x972d
     4a6:	f2c0 0100 	movt	r1, #0
     4aa:	910c      	str	r1, [sp, #48]	@ 0x30
     4ac:	990c      	ldr	r1, [sp, #48]	@ 0x30
     4ae:	f002 faec 	bl	2a8a <_ZN16embassy_executor3raw4util23SyncUnsafeCell$LT$T$GT$3set17h518a18d14392673eE>
     4b2:	9802      	ldr	r0, [sp, #8]
                this.raw.state.despawn();
     4b4:	3010      	adds	r0, #16
     4b6:	9001      	str	r0, [sp, #4]
     4b8:	9011      	str	r0, [sp, #68]	@ 0x44
     4ba:	2001      	movs	r0, #1
    }

    /// Unmark the task as spawned.
    #[inline(always)]
    pub fn despawn(&self) {
        compiler_fence(Ordering::Release);
     4bc:	f807 0c0e 	strb.w	r0, [r7, #-14]
     4c0:	f817 0c0e 	ldrb.w	r0, [r7, #-14]
     4c4:	f002 ff74 	bl	33b0 <_ZN4core4sync6atomic14compiler_fence17h02052c57d8d5e9d5E>
     4c8:	9801      	ldr	r0, [sp, #4]
     4ca:	2100      	movs	r1, #0
        self.spawned.store(false, Ordering::Relaxed);
     4cc:	f807 1c0d 	strb.w	r1, [r7, #-13]
     4d0:	f817 2c0d 	ldrb.w	r2, [r7, #-13]
     4d4:	f002 ff5f 	bl	3396 <_ZN4core4sync6atomic10AtomicBool5store17hde2be9a0f56795adE>
     4d8:	e7d7      	b.n	48a <_ZN16embassy_executor3raw20TaskStorage$LT$F$GT$4poll17ha6c24643d096382aE+0x44>

000004da <_ZN16embassy_executor3raw21TaskPool$LT$F$C$_$GT$10spawn_impl17h6d46def5e71b4fb0E>:
        Self {
            pool: [TaskStorage::NEW; N],
        }
    }

    fn spawn_impl<T>(&'static self, future: impl FnOnce() -> F) -> SpawnToken<T> {
     4da:	b580      	push	{r7, lr}
     4dc:	466f      	mov	r7, sp
     4de:	b08a      	sub	sp, #40	@ 0x28
     4e0:	9101      	str	r1, [sp, #4]
     4e2:	9007      	str	r0, [sp, #28]
     4e4:	9108      	str	r1, [sp, #32]
     4e6:	2100      	movs	r1, #0
        match self.pool.iter().find_map(AvailableTask::claim) {
     4e8:	f807 1c0d 	strb.w	r1, [r7, #-13]
     4ec:	2101      	movs	r1, #1
     4ee:	f807 1c0d 	strb.w	r1, [r7, #-13]
     4f2:	f000 f8b2 	bl	65a <_ZN4core5slice29_$LT$impl$u20$$u5b$T$u5d$$GT$4iter17ha661ed814e902af1E>
     4f6:	9004      	str	r0, [sp, #16]
     4f8:	9105      	str	r1, [sp, #20]
     4fa:	a804      	add	r0, sp, #16
     4fc:	f000 fa31 	bl	962 <_ZN91_$LT$core..slice..iter..Iter$LT$T$GT$$u20$as$u20$core..iter..traits..iterator..Iterator$GT$8find_map17h591791fb5ca92d1fE>
     500:	9003      	str	r0, [sp, #12]
     502:	9803      	ldr	r0, [sp, #12]
     504:	b150      	cbz	r0, 51c <_ZN16embassy_executor3raw21TaskPool$LT$F$C$_$GT$10spawn_impl17h6d46def5e71b4fb0E+0x42>
     506:	e7ff      	b.n	508 <_ZN16embassy_executor3raw21TaskPool$LT$F$C$_$GT$10spawn_impl17h6d46def5e71b4fb0E+0x2e>
            Some(task) => task.initialize_impl::<T>(future),
     508:	9901      	ldr	r1, [sp, #4]
     50a:	9803      	ldr	r0, [sp, #12]
     50c:	9009      	str	r0, [sp, #36]	@ 0x24
     50e:	2200      	movs	r2, #0
     510:	f807 2c0d 	strb.w	r2, [r7, #-13]
     514:	f000 f83b 	bl	58e <_ZN16embassy_executor3raw22AvailableTask$LT$F$GT$15initialize_impl17hb60128c8430b2e48E>
     518:	9002      	str	r0, [sp, #8]
     51a:	e003      	b.n	524 <_ZN16embassy_executor3raw21TaskPool$LT$F$C$_$GT$10spawn_impl17h6d46def5e71b4fb0E+0x4a>
            None => SpawnToken::new_failed(),
     51c:	f002 fc90 	bl	2e40 <_ZN16embassy_executor7spawner19SpawnToken$LT$S$GT$10new_failed17h14713d30cecec555E>
     520:	9002      	str	r0, [sp, #8]
     522:	e7ff      	b.n	524 <_ZN16embassy_executor3raw21TaskPool$LT$F$C$_$GT$10spawn_impl17h6d46def5e71b4fb0E+0x4a>
        }
    }
     524:	f817 0c0d 	ldrb.w	r0, [r7, #-13]
     528:	07c0      	lsls	r0, r0, #31
     52a:	b918      	cbnz	r0, 534 <_ZN16embassy_executor3raw21TaskPool$LT$F$C$_$GT$10spawn_impl17h6d46def5e71b4fb0E+0x5a>
     52c:	e7ff      	b.n	52e <_ZN16embassy_executor3raw21TaskPool$LT$F$C$_$GT$10spawn_impl17h6d46def5e71b4fb0E+0x54>
     52e:	9802      	ldr	r0, [sp, #8]
     530:	b00a      	add	sp, #40	@ 0x28
     532:	bd80      	pop	{r7, pc}
     534:	e7fb      	b.n	52e <_ZN16embassy_executor3raw21TaskPool$LT$F$C$_$GT$10spawn_impl17h6d46def5e71b4fb0E+0x54>

00000536 <_ZN16embassy_executor3raw21TaskPool$LT$F$C$_$GT$15_spawn_async_fn17h1601693635614615E>:
    /// by the Embassy macros ONLY.
    ///
    /// SAFETY: `future` must be a closure of the form `move || my_async_fn(args)`, where `my_async_fn`
    /// is an `async fn`, NOT a hand-written `Future`.
    #[doc(hidden)]
    pub unsafe fn _spawn_async_fn<FutFn>(&'static self, future: FutFn) -> SpawnToken<impl Sized>
     536:	b580      	push	{r7, lr}
     538:	466f      	mov	r7, sp
     53a:	b082      	sub	sp, #8
     53c:	9000      	str	r0, [sp, #0]
     53e:	9101      	str	r1, [sp, #4]
    where
        FutFn: FnOnce() -> F,
    {
        // See the comment in AvailableTask::__initialize_async_fn for explanation.
        self.spawn_impl::<FutFn>(future)
     540:	f7ff ffcb 	bl	4da <_ZN16embassy_executor3raw21TaskPool$LT$F$C$_$GT$10spawn_impl17h6d46def5e71b4fb0E>
    }
     544:	b002      	add	sp, #8
     546:	bd80      	pop	{r7, pc}

00000548 <_ZN16embassy_executor3raw21TaskPool$LT$F$C$_$GT$3new17h9cf8f319d5268cb1E>:
    pub const fn new() -> Self {
     548:	b580      	push	{r7, lr}
     54a:	466f      	mov	r7, sp
     54c:	b0c4      	sub	sp, #272	@ 0x110
     54e:	9002      	str	r0, [sp, #8]
     550:	2000      	movs	r0, #0
            pool: [TaskStorage::NEW; N],
     552:	9003      	str	r0, [sp, #12]
     554:	e7ff      	b.n	556 <_ZN16embassy_executor3raw21TaskPool$LT$F$C$_$GT$3new17h9cf8f319d5268cb1E+0xe>
     556:	9803      	ldr	r0, [sp, #12]
     558:	9001      	str	r0, [sp, #4]
     55a:	b980      	cbnz	r0, 57e <_ZN16embassy_executor3raw21TaskPool$LT$F$C$_$GT$3new17h9cf8f319d5268cb1E+0x36>
     55c:	e7ff      	b.n	55e <_ZN16embassy_executor3raw21TaskPool$LT$F$C$_$GT$3new17h9cf8f319d5268cb1E+0x16>
     55e:	9901      	ldr	r1, [sp, #4]
     560:	a804      	add	r0, sp, #16
     562:	eb00 2001 	add.w	r0, r0, r1, lsl #8
     566:	f64b 3160 	movw	r1, #47968	@ 0xbb60
     56a:	f2c0 0100 	movt	r1, #0
     56e:	f44f 7280 	mov.w	r2, #256	@ 0x100
     572:	f00b f862 	bl	b63a <__aeabi_memcpy8>
     576:	9801      	ldr	r0, [sp, #4]
     578:	3001      	adds	r0, #1
     57a:	9003      	str	r0, [sp, #12]
     57c:	e7eb      	b.n	556 <_ZN16embassy_executor3raw21TaskPool$LT$F$C$_$GT$3new17h9cf8f319d5268cb1E+0xe>
        Self {
     57e:	9802      	ldr	r0, [sp, #8]
     580:	a904      	add	r1, sp, #16
     582:	f44f 7280 	mov.w	r2, #256	@ 0x100
     586:	f00b f858 	bl	b63a <__aeabi_memcpy8>
    }
     58a:	b044      	add	sp, #272	@ 0x110
     58c:	bd80      	pop	{r7, pc}

0000058e <_ZN16embassy_executor3raw22AvailableTask$LT$F$GT$15initialize_impl17hb60128c8430b2e48E>:
    fn initialize_impl<S>(self, future: impl FnOnce() -> F) -> SpawnToken<S> {
     58e:	b580      	push	{r7, lr}
     590:	466f      	mov	r7, sp
     592:	b086      	sub	sp, #24
     594:	9101      	str	r1, [sp, #4]
     596:	9002      	str	r0, [sp, #8]
     598:	9104      	str	r1, [sp, #16]
            self.task.raw.poll_fn.set(Some(TaskStorage::<F>::poll));
     59a:	9802      	ldr	r0, [sp, #8]
     59c:	301c      	adds	r0, #28
     59e:	f240 4147 	movw	r1, #1095	@ 0x447
     5a2:	f2c0 0100 	movt	r1, #0
     5a6:	9103      	str	r1, [sp, #12]
     5a8:	9903      	ldr	r1, [sp, #12]
     5aa:	f002 fa6e 	bl	2a8a <_ZN16embassy_executor3raw4util23SyncUnsafeCell$LT$T$GT$3set17h518a18d14392673eE>
     5ae:	9901      	ldr	r1, [sp, #4]
            self.task.future.write_in_place(future);
     5b0:	9802      	ldr	r0, [sp, #8]
     5b2:	3020      	adds	r0, #32
     5b4:	f002 fa4d 	bl	2a52 <_ZN16embassy_executor3raw4util19UninitCell$LT$T$GT$14write_in_place17hfca5611d46463744E>
            let task = TaskRef::new(self.task);
     5b8:	9802      	ldr	r0, [sp, #8]
     5ba:	f000 f844 	bl	646 <_ZN16embassy_executor3raw7TaskRef3new17h1662bfabef155bf4E>
     5be:	9005      	str	r0, [sp, #20]
            SpawnToken::new(task)
     5c0:	f002 fc46 	bl	2e50 <_ZN16embassy_executor7spawner19SpawnToken$LT$S$GT$3new17h7e8bfa4500b6e3ffE>
    }
     5c4:	b006      	add	sp, #24
     5c6:	bd80      	pop	{r7, pc}

000005c8 <_ZN16embassy_executor3raw22AvailableTask$LT$F$GT$5claim17h480f478892374325E>:
    pub fn claim(task: &'static TaskStorage<F>) -> Option<Self> {
     5c8:	b580      	push	{r7, lr}
     5ca:	466f      	mov	r7, sp
     5cc:	b08a      	sub	sp, #40	@ 0x28
     5ce:	9003      	str	r0, [sp, #12]
        task.raw.state.spawn().then(|| Self { task })
     5d0:	9803      	ldr	r0, [sp, #12]
     5d2:	3010      	adds	r0, #16
     5d4:	9001      	str	r0, [sp, #4]
     5d6:	9008      	str	r0, [sp, #32]
     5d8:	2001      	movs	r0, #1
        compiler_fence(Ordering::Release);
     5da:	f807 0c15 	strb.w	r0, [r7, #-21]
     5de:	f817 0c15 	ldrb.w	r0, [r7, #-21]
     5e2:	f002 fee5 	bl	33b0 <_ZN4core4sync6atomic14compiler_fence17h02052c57d8d5e9d5E>
     5e6:	9801      	ldr	r0, [sp, #4]
        let r = self
     5e8:	f009 f80d 	bl	9606 <_ZN16embassy_executor3raw5state5State6as_u3217h2de4fd4b41425cedE>
     5ec:	2100      	movs	r1, #0
                Ordering::Relaxed,
     5ee:	f807 1c0b 	strb.w	r1, [r7, #-11]
                Ordering::Relaxed,
     5f2:	f807 1c0a 	strb.w	r1, [r7, #-10]
        let r = self
     5f6:	f817 3c0b 	ldrb.w	r3, [r7, #-11]
     5fa:	f817 2c0a 	ldrb.w	r2, [r7, #-10]
     5fe:	46ec      	mov	ip, sp
     600:	f8cc 2000 	str.w	r2, [ip]
     604:	f240 1201 	movw	r2, #257	@ 0x101
     608:	f002 ff05 	bl	3416 <_ZN4core4sync6atomic9AtomicU3216compare_exchange17h08b568de30730aa7E>
     60c:	9005      	str	r0, [sp, #20]
     60e:	9106      	str	r1, [sp, #24]
     610:	a805      	add	r0, sp, #20
     612:	f002 fbc9 	bl	2da8 <_ZN4core6result19Result$LT$T$C$E$GT$5is_ok17h6b8f9933727becb9E>
     616:	9002      	str	r0, [sp, #8]
     618:	f807 0c01 	strb.w	r0, [r7, #-1]
     61c:	2002      	movs	r0, #2
        compiler_fence(Ordering::Acquire);
     61e:	f807 0c09 	strb.w	r0, [r7, #-9]
     622:	f817 0c09 	ldrb.w	r0, [r7, #-9]
     626:	f002 fec3 	bl	33b0 <_ZN4core4sync6atomic14compiler_fence17h02052c57d8d5e9d5E>
     62a:	9802      	ldr	r0, [sp, #8]
     62c:	a903      	add	r1, sp, #12
     62e:	f002 fa89 	bl	2b44 <_ZN4core4bool22_$LT$impl$u20$bool$GT$4then17he2b205a9f9b5d805E>
    }
     632:	b00a      	add	sp, #40	@ 0x28
     634:	bd80      	pop	{r7, pc}

00000636 <_ZN16embassy_executor3raw22AvailableTask$LT$F$GT$5claim28_$u7b$$u7b$closure$u7d$$u7d$17h192ea2556efaa5fbE>:
        task.raw.state.spawn().then(|| Self { task })
     636:	b580      	push	{r7, lr}
     638:	466f      	mov	r7, sp
     63a:	b081      	sub	sp, #4
     63c:	9000      	str	r0, [sp, #0]
     63e:	9800      	ldr	r0, [sp, #0]
     640:	6800      	ldr	r0, [r0, #0]
     642:	b001      	add	sp, #4
     644:	bd80      	pop	{r7, pc}

00000646 <_ZN16embassy_executor3raw7TaskRef3new17h1662bfabef155bf4E>:
    fn new<F: Future + 'static>(task: &'static TaskStorage<F>) -> Self {
     646:	b580      	push	{r7, lr}
     648:	466f      	mov	r7, sp
     64a:	b082      	sub	sp, #8
     64c:	9001      	str	r0, [sp, #4]
            ptr: NonNull::from(task).cast(),
     64e:	f001 ff89 	bl	2564 <_ZN90_$LT$core..ptr..non_null..NonNull$LT$T$GT$$u20$as$u20$core..convert..From$LT$$RF$T$GT$$GT$4from17hb6b6b95f3e6c2b63E>
     652:	f001 ff81 	bl	2558 <_ZN4core3ptr8non_null16NonNull$LT$T$GT$4cast17h9c4595d49df83306E>
    }
     656:	b002      	add	sp, #8
     658:	bd80      	pop	{r7, pc}

0000065a <_ZN4core5slice29_$LT$impl$u20$$u5b$T$u5d$$GT$4iter17ha661ed814e902af1E>:
    /// assert_eq!(iterator.next(), None);
    /// ```
    #[stable(feature = "rust1", since = "1.0.0")]
    #[inline]
    #[rustc_diagnostic_item = "slice_iter"]
    pub fn iter(&self) -> Iter<'_, T> {
     65a:	b580      	push	{r7, lr}
     65c:	466f      	mov	r7, sp
     65e:	b082      	sub	sp, #8
     660:	9000      	str	r0, [sp, #0]
     662:	9101      	str	r1, [sp, #4]
        Iter::new(self)
     664:	f000 f8f7 	bl	856 <_ZN4core5slice4iter13Iter$LT$T$GT$3new17ha012cd68c91985feE>
    }
     668:	b002      	add	sp, #8
     66a:	bd80      	pop	{r7, pc}

0000066c <_ZN4core3ptr5write17h05e94e16f97cc45cE>:
#[inline]
#[stable(feature = "rust1", since = "1.0.0")]
#[rustc_const_stable(feature = "const_ptr_write", since = "1.83.0")]
#[rustc_diagnostic_item = "ptr_write"]
#[cfg_attr(miri, track_caller)] // even without panics, this helps for Miri backtraces
pub const unsafe fn write<T>(dst: *mut T, src: T) {
     66c:	b580      	push	{r7, lr}
     66e:	466f      	mov	r7, sp
     670:	b082      	sub	sp, #8
     672:	9001      	str	r0, [sp, #4]
     674:	22e0      	movs	r2, #224	@ 0xe0
                addr: *mut () = dst as *mut (),
                align: usize = align_of::<T>(),
                is_zst: bool = T::IS_ZST,
            ) => ub_checks::maybe_is_aligned_and_not_null(addr, align, is_zst)
        );
        intrinsics::write_via_move(dst, src)
     676:	f00a ffe0 	bl	b63a <__aeabi_memcpy8>
    }
}
     67a:	b002      	add	sp, #8
     67c:	bd80      	pop	{r7, pc}

0000067e <_ZN16embassy_executor7_export11TaskPoolRef3get17h2a7433025a7916ccE>:

        /// Get the pool for this ref, allocating it from the arena the first time.
        ///
        /// safety: for a given TaskPoolRef instance, must always call with the exact
        /// same generic params.
        pub unsafe fn get<F: Future, const N: usize>(&'static self) -> &'static TaskPool<F, N> {
     67e:	b580      	push	{r7, lr}
     680:	466f      	mov	r7, sp
     682:	b082      	sub	sp, #8
     684:	9001      	str	r0, [sp, #4]
            critical_section::with(|cs| {
     686:	f002 fc30 	bl	2eea <_ZN16critical_section4with17had406faee0062bd7E>
                    ptr.set(pool as *mut _ as _);
                }

                unsafe { &*(ptr.get() as *const _) }
            })
        }
     68a:	b002      	add	sp, #8
     68c:	bd80      	pop	{r7, pc}

0000068e <_ZN16embassy_executor7_export11TaskPoolRef3get28_$u7b$$u7b$closure$u7d$$u7d$17h51e2099415bbea6fE>:
            critical_section::with(|cs| {
     68e:	b580      	push	{r7, lr}
     690:	466f      	mov	r7, sp
     692:	f5ad 7d4e 	sub.w	sp, sp, #824	@ 0x338
     696:	9007      	str	r0, [sp, #28]
                let ptr = self.ptr.borrow(cs);
     698:	9807      	ldr	r0, [sp, #28]
     69a:	f002 fa43 	bl	2b24 <_ZN16critical_section5mutex14Mutex$LT$T$GT$6borrow17he86f423c40f64adeE>
     69e:	4601      	mov	r1, r0
     6a0:	9106      	str	r1, [sp, #24]
     6a2:	904a      	str	r0, [sp, #296]	@ 0x128
                if ptr.get().is_null() {
     6a4:	f002 fe59 	bl	335a <_ZN4core4cell13Cell$LT$T$GT$3get17h3beb6b66500aa087E>
     6a8:	f002 fa43 	bl	2b32 <_ZN4core3ptr7mut_ptr31_$LT$impl$u20$$BP$mut$u20$T$GT$7is_null17hc47244a84bb37139E>
     6ac:	b930      	cbnz	r0, 6bc <_ZN16embassy_executor7_export11TaskPoolRef3get28_$u7b$$u7b$closure$u7d$$u7d$17h51e2099415bbea6fE+0x2e>
     6ae:	e7ff      	b.n	6b0 <_ZN16embassy_executor7_export11TaskPoolRef3get28_$u7b$$u7b$closure$u7d$$u7d$17h51e2099415bbea6fE+0x22>
                unsafe { &*(ptr.get() as *const _) }
     6b0:	9806      	ldr	r0, [sp, #24]
     6b2:	f002 fe52 	bl	335a <_ZN4core4cell13Cell$LT$T$GT$3get17h3beb6b66500aa087E>
            })
     6b6:	f50d 7d4e 	add.w	sp, sp, #824	@ 0x338
     6ba:	bd80      	pop	{r7, pc}
                    let pool = ARENA.alloc::<TaskPool<F, N>>(cs);
     6bc:	f240 201c 	movw	r0, #540	@ 0x21c
     6c0:	f2c2 0000 	movt	r0, #8192	@ 0x2000
     6c4:	f000 f820 	bl	708 <_ZN16embassy_executor7_export14Arena$LT$_$GT$5alloc17hd3523b6eec755e24E>
     6c8:	9005      	str	r0, [sp, #20]
     6ca:	904b      	str	r0, [sp, #300]	@ 0x12c
     6cc:	a808      	add	r0, sp, #32
                    pool.write(TaskPool::new());
     6ce:	9001      	str	r0, [sp, #4]
     6d0:	f7ff ff3a 	bl	548 <_ZN16embassy_executor3raw21TaskPool$LT$F$C$_$GT$3new17h9cf8f319d5268cb1E>
     6d4:	9901      	ldr	r1, [sp, #4]
     6d6:	9805      	ldr	r0, [sp, #20]
     6d8:	90cd      	str	r0, [sp, #820]	@ 0x334
     6da:	a88c      	add	r0, sp, #560	@ 0x230
     6dc:	9002      	str	r0, [sp, #8]
     6de:	f44f 7280 	mov.w	r2, #256	@ 0x100
    #[must_use = "if you don't need the wrapper, you can use `mem::forget` instead"]
    #[stable(feature = "manually_drop", since = "1.20.0")]
    #[rustc_const_stable(feature = "const_manually_drop", since = "1.32.0")]
    #[inline(always)]
    pub const fn new(value: T) -> ManuallyDrop<T> {
        ManuallyDrop { value }
     6e2:	9204      	str	r2, [sp, #16]
     6e4:	f00a ffa9 	bl	b63a <__aeabi_memcpy8>
     6e8:	9902      	ldr	r1, [sp, #8]
     6ea:	9a04      	ldr	r2, [sp, #16]
     6ec:	a84c      	add	r0, sp, #304	@ 0x130
    #[stable(feature = "maybe_uninit", since = "1.36.0")]
    #[rustc_const_stable(feature = "const_maybe_uninit", since = "1.36.0")]
    #[must_use = "use `forget` to avoid running Drop code"]
    #[inline(always)]
    pub const fn new(val: T) -> MaybeUninit<T> {
        MaybeUninit { value: ManuallyDrop::new(val) }
     6ee:	9003      	str	r0, [sp, #12]
     6f0:	f00a ffa3 	bl	b63a <__aeabi_memcpy8>
     6f4:	9903      	ldr	r1, [sp, #12]
     6f6:	9a04      	ldr	r2, [sp, #16]
     6f8:	9805      	ldr	r0, [sp, #20]
    /// ```
    #[inline(always)]
    #[stable(feature = "maybe_uninit_write", since = "1.55.0")]
    #[rustc_const_stable(feature = "const_maybe_uninit_write", since = "1.85.0")]
    pub const fn write(&mut self, val: T) -> &mut T {
        *self = MaybeUninit::new(val);
     6fa:	f00a ff9e 	bl	b63a <__aeabi_memcpy8>
     6fe:	9806      	ldr	r0, [sp, #24]
     700:	9905      	ldr	r1, [sp, #20]
                    ptr.set(pool as *mut _ as _);
     702:	f002 fe38 	bl	3376 <_ZN4core4cell13Cell$LT$T$GT$3set17h7fa06842796ee4c0E>
     706:	e7d3      	b.n	6b0 <_ZN16embassy_executor7_export11TaskPoolRef3get28_$u7b$$u7b$closure$u7d$$u7d$17h51e2099415bbea6fE+0x22>

00000708 <_ZN16embassy_executor7_export14Arena$LT$_$GT$5alloc17hd3523b6eec755e24E>:
        fn alloc<T>(&'static self, cs: CriticalSection) -> &'static mut MaybeUninit<T> {
     708:	b580      	push	{r7, lr}
     70a:	466f      	mov	r7, sp
     70c:	b0a0      	sub	sp, #128	@ 0x80
     70e:	9008      	str	r0, [sp, #32]
     710:	900e      	str	r0, [sp, #56]	@ 0x38
            let layout = Layout::new::<T>();
     712:	f002 fdc6 	bl	32a2 <_ZN4core5alloc6layout6Layout3new17h392af1b5063bfc40E>
     716:	4602      	mov	r2, r0
     718:	9808      	ldr	r0, [sp, #32]
     71a:	920a      	str	r2, [sp, #40]	@ 0x28
     71c:	910b      	str	r1, [sp, #44]	@ 0x2c
     71e:	901f      	str	r0, [sp, #124]	@ 0x7c
     720:	901d      	str	r0, [sp, #116]	@ 0x74
            let start = self.buf.get().cast::<u8>();
     722:	9010      	str	r0, [sp, #64]	@ 0x40
     724:	901a      	str	r0, [sp, #104]	@ 0x68
     726:	f44f 4100 	mov.w	r1, #32768	@ 0x8000
     72a:	911b      	str	r1, [sp, #108]	@ 0x6c
        unsafe { intrinsics::offset(self, count) }
     72c:	f500 4000 	add.w	r0, r0, #32768	@ 0x8000
     730:	4601      	mov	r1, r0
            let end = unsafe { start.add(N) };
     732:	9109      	str	r1, [sp, #36]	@ 0x24
     734:	9011      	str	r0, [sp, #68]	@ 0x44
            let mut ptr = self.ptr.borrow(cs).get();
     736:	f002 f9ee 	bl	2b16 <_ZN16critical_section5mutex14Mutex$LT$T$GT$6borrow17h77d965106c134d4bE>
     73a:	f002 fe15 	bl	3368 <_ZN4core4cell13Cell$LT$T$GT$3get17h5a4f70328894023eE>
     73e:	900c      	str	r0, [sp, #48]	@ 0x30
            if ptr.is_null() {
     740:	980c      	ldr	r0, [sp, #48]	@ 0x30
     742:	f006 fb48 	bl	6dd6 <_ZN4core3ptr7mut_ptr31_$LT$impl$u20$$BP$mut$u20$T$GT$7is_null17hfec3e1d4a4a9bd7eE>
     746:	b938      	cbnz	r0, 758 <_ZN16embassy_executor7_export14Arena$LT$_$GT$5alloc17hd3523b6eec755e24E+0x50>
     748:	e7ff      	b.n	74a <_ZN16embassy_executor7_export14Arena$LT$_$GT$5alloc17hd3523b6eec755e24E+0x42>
            let bytes_left = (end as usize) - (ptr as usize);
     74a:	9809      	ldr	r0, [sp, #36]	@ 0x24
     74c:	990c      	ldr	r1, [sp, #48]	@ 0x30
     74e:	1a42      	subs	r2, r0, r1
     750:	9207      	str	r2, [sp, #28]
     752:	4288      	cmp	r0, r1
     754:	d316      	bcc.n	784 <_ZN16embassy_executor7_export14Arena$LT$_$GT$5alloc17hd3523b6eec755e24E+0x7c>
     756:	e004      	b.n	762 <_ZN16embassy_executor7_export14Arena$LT$_$GT$5alloc17hd3523b6eec755e24E+0x5a>
     758:	9808      	ldr	r0, [sp, #32]
     75a:	901e      	str	r0, [sp, #120]	@ 0x78
     75c:	901c      	str	r0, [sp, #112]	@ 0x70
                ptr = self.buf.get().cast::<u8>();
     75e:	900c      	str	r0, [sp, #48]	@ 0x30
            if ptr.is_null() {
     760:	e7f3      	b.n	74a <_ZN16embassy_executor7_export14Arena$LT$_$GT$5alloc17hd3523b6eec755e24E+0x42>
            let bytes_left = (end as usize) - (ptr as usize);
     762:	9807      	ldr	r0, [sp, #28]
     764:	9012      	str	r0, [sp, #72]	@ 0x48
            let align_offset = (ptr as usize).next_multiple_of(layout.align()) - (ptr as usize);
     766:	980c      	ldr	r0, [sp, #48]	@ 0x30
     768:	9005      	str	r0, [sp, #20]
     76a:	a80a      	add	r0, sp, #40	@ 0x28
     76c:	f001 fc45 	bl	1ffa <_ZN4core5alloc6layout6Layout5align17heea29df1c3211099E>
     770:	4601      	mov	r1, r0
     772:	9805      	ldr	r0, [sp, #20]
     774:	f002 f992 	bl	2a9c <_ZN4core3num23_$LT$impl$u20$usize$GT$16next_multiple_of17h71629f7c2fa77519E>
     778:	990c      	ldr	r1, [sp, #48]	@ 0x30
     77a:	1a42      	subs	r2, r0, r1
     77c:	9206      	str	r2, [sp, #24]
     77e:	4288      	cmp	r0, r1
     780:	d311      	bcc.n	7a6 <_ZN16embassy_executor7_export14Arena$LT$_$GT$5alloc17hd3523b6eec755e24E+0x9e>
     782:	e005      	b.n	790 <_ZN16embassy_executor7_export14Arena$LT$_$GT$5alloc17hd3523b6eec755e24E+0x88>
            let bytes_left = (end as usize) - (ptr as usize);
     784:	f64b 40cc 	movw	r0, #48332	@ 0xbccc
     788:	f2c0 0000 	movt	r0, #0
     78c:	f00a fce0 	bl	b150 <_ZN4core9panicking11panic_const24panic_const_sub_overflow17ha4c339b91653944eE>
            let align_offset = (ptr as usize).next_multiple_of(layout.align()) - (ptr as usize);
     790:	9806      	ldr	r0, [sp, #24]
     792:	9013      	str	r0, [sp, #76]	@ 0x4c
     794:	a80a      	add	r0, sp, #40	@ 0x28
            if align_offset + layout.size() > bytes_left {
     796:	f001 fc29 	bl	1fec <_ZN4core5alloc6layout6Layout4size17h30fba2bb97d3f226E>
     79a:	9906      	ldr	r1, [sp, #24]
     79c:	4408      	add	r0, r1
     79e:	4288      	cmp	r0, r1
     7a0:	9004      	str	r0, [sp, #16]
     7a2:	d30b      	bcc.n	7bc <_ZN16embassy_executor7_export14Arena$LT$_$GT$5alloc17hd3523b6eec755e24E+0xb4>
     7a4:	e005      	b.n	7b2 <_ZN16embassy_executor7_export14Arena$LT$_$GT$5alloc17hd3523b6eec755e24E+0xaa>
            let align_offset = (ptr as usize).next_multiple_of(layout.align()) - (ptr as usize);
     7a6:	f64b 40dc 	movw	r0, #48348	@ 0xbcdc
     7aa:	f2c0 0000 	movt	r0, #0
     7ae:	f00a fccf 	bl	b150 <_ZN4core9panicking11panic_const24panic_const_sub_overflow17ha4c339b91653944eE>
            if align_offset + layout.size() > bytes_left {
     7b2:	9804      	ldr	r0, [sp, #16]
     7b4:	9907      	ldr	r1, [sp, #28]
     7b6:	4288      	cmp	r0, r1
     7b8:	d819      	bhi.n	7ee <_ZN16embassy_executor7_export14Arena$LT$_$GT$5alloc17hd3523b6eec755e24E+0xe6>
     7ba:	e005      	b.n	7c8 <_ZN16embassy_executor7_export14Arena$LT$_$GT$5alloc17hd3523b6eec755e24E+0xc0>
     7bc:	f64b 40ec 	movw	r0, #48364	@ 0xbcec
     7c0:	f2c0 0000 	movt	r0, #0
     7c4:	f00a fcb1 	bl	b12a <_ZN4core9panicking11panic_const24panic_const_add_overflow17he3ca46f2f2ec3678E>
            let res = unsafe { ptr.add(align_offset) };
     7c8:	9906      	ldr	r1, [sp, #24]
     7ca:	980c      	ldr	r0, [sp, #48]	@ 0x30
     7cc:	9018      	str	r0, [sp, #96]	@ 0x60
     7ce:	9119      	str	r1, [sp, #100]	@ 0x64
     7d0:	4408      	add	r0, r1
     7d2:	4601      	mov	r1, r0
     7d4:	9101      	str	r1, [sp, #4]
     7d6:	9014      	str	r0, [sp, #80]	@ 0x50
            let ptr = unsafe { ptr.add(align_offset + layout.size()) };
     7d8:	980c      	ldr	r0, [sp, #48]	@ 0x30
     7da:	9002      	str	r0, [sp, #8]
     7dc:	a80a      	add	r0, sp, #40	@ 0x28
     7de:	f001 fc05 	bl	1fec <_ZN4core5alloc6layout6Layout4size17h30fba2bb97d3f226E>
     7e2:	9906      	ldr	r1, [sp, #24]
     7e4:	4408      	add	r0, r1
     7e6:	4288      	cmp	r0, r1
     7e8:	9003      	str	r0, [sp, #12]
     7ea:	d320      	bcc.n	82e <_ZN16embassy_executor7_export14Arena$LT$_$GT$5alloc17hd3523b6eec755e24E+0x126>
     7ec:	e00d      	b.n	80a <_ZN16embassy_executor7_export14Arena$LT$_$GT$5alloc17hd3523b6eec755e24E+0x102>
                panic!("embassy-executor: task arena is full. You must increase the arena size, see the documentation for details: https://docs.embassy.dev/embassy-executor/");
     7ee:	f240 000a 	movw	r0, #10
     7f2:	f2c0 0000 	movt	r0, #0
     7f6:	f009 faf4 	bl	9de2 <_ZN5defmt6export9make_istr17h5fd4c9793e25184eE>
     7fa:	f827 0c4a 	strh.w	r0, [r7, #-74]
     7fe:	f1a7 004a 	sub.w	r0, r7, #74	@ 0x4a
     802:	f009 fb5d 	bl	9ec0 <_ZN5defmt6export26acquire_header_and_release17h7ce8ef2ffd00dd1bE>
#[inline(always)]
pub fn panic() -> ! {
    extern "Rust" {
        fn _defmt_panic() -> !;
    }
    unsafe { _defmt_panic() }
     806:	f009 fb8b 	bl	9f20 <__defmt_default_panic>
     80a:	9808      	ldr	r0, [sp, #32]
     80c:	9902      	ldr	r1, [sp, #8]
     80e:	9a03      	ldr	r2, [sp, #12]
     810:	9116      	str	r1, [sp, #88]	@ 0x58
     812:	9217      	str	r2, [sp, #92]	@ 0x5c
     814:	4411      	add	r1, r2
            let ptr = unsafe { ptr.add(align_offset + layout.size()) };
     816:	9100      	str	r1, [sp, #0]
     818:	9115      	str	r1, [sp, #84]	@ 0x54
            self.ptr.borrow(cs).set(ptr);
     81a:	f500 4000 	add.w	r0, r0, #32768	@ 0x8000
     81e:	f002 f97a 	bl	2b16 <_ZN16critical_section5mutex14Mutex$LT$T$GT$6borrow17h77d965106c134d4bE>
     822:	9900      	ldr	r1, [sp, #0]
     824:	f002 fdaf 	bl	3386 <_ZN4core4cell13Cell$LT$T$GT$3set17hbd924c25cd1bf402E>
     828:	9801      	ldr	r0, [sp, #4]
        }
     82a:	b020      	add	sp, #128	@ 0x80
     82c:	bd80      	pop	{r7, pc}
            let ptr = unsafe { ptr.add(align_offset + layout.size()) };
     82e:	f64b 40fc 	movw	r0, #48380	@ 0xbcfc
     832:	f2c0 0000 	movt	r0, #0
     836:	f00a fc78 	bl	b12a <_ZN4core9panicking11panic_const24panic_const_add_overflow17he3ca46f2f2ec3678E>

0000083a <_ZN4core4iter6traits8iterator8Iterator9enumerate17h98d390c1ea5f9ce6E>:
    /// assert_eq!(iter.next(), None);
    /// ```
    #[inline]
    #[stable(feature = "rust1", since = "1.0.0")]
    #[rustc_diagnostic_item = "enumerate_method"]
    fn enumerate(self) -> Enumerate<Self>
     83a:	b580      	push	{r7, lr}
     83c:	466f      	mov	r7, sp
     83e:	b083      	sub	sp, #12
     840:	9100      	str	r1, [sp, #0]
     842:	4601      	mov	r1, r0
     844:	9800      	ldr	r0, [sp, #0]
     846:	9001      	str	r0, [sp, #4]
     848:	9202      	str	r2, [sp, #8]
    iter: I,
    count: usize,
}
impl<I> Enumerate<I> {
    pub(in crate::iter) fn new(iter: I) -> Enumerate<I> {
        Enumerate { iter, count: 0 }
     84a:	6008      	str	r0, [r1, #0]
     84c:	604a      	str	r2, [r1, #4]
     84e:	2000      	movs	r0, #0
     850:	6088      	str	r0, [r1, #8]
    where
        Self: Sized,
    {
        Enumerate::new(self)
    }
     852:	b003      	add	sp, #12
     854:	bd80      	pop	{r7, pc}

00000856 <_ZN4core5slice4iter13Iter$LT$T$GT$3new17ha012cd68c91985feE>:
#[stable(feature = "rust1", since = "1.0.0")]
unsafe impl<T: Sync> Send for Iter<'_, T> {}

impl<'a, T> Iter<'a, T> {
    #[inline]
    pub(super) fn new(slice: &'a [T]) -> Self {
     856:	b580      	push	{r7, lr}
     858:	466f      	mov	r7, sp
     85a:	b08a      	sub	sp, #40	@ 0x28
     85c:	9100      	str	r1, [sp, #0]
     85e:	9001      	str	r0, [sp, #4]
     860:	9003      	str	r0, [sp, #12]
     862:	9104      	str	r1, [sp, #16]
        let len = slice.len();
     864:	9105      	str	r1, [sp, #20]
    /// Converts a reference to a `NonNull` pointer.
    #[unstable(feature = "non_null_from_ref", issue = "130823")]
    #[inline]
    pub const fn from_ref(r: &T) -> Self {
        // SAFETY: A reference cannot be null.
        unsafe { NonNull { pointer: r as *const T } }
     866:	9006      	str	r0, [sp, #24]
     868:	9107      	str	r1, [sp, #28]
    #[must_use = "this returns the result of the operation, \
                  without modifying the original"]
    #[inline]
    pub const fn cast<U>(self) -> NonNull<U> {
        // SAFETY: `self` is a `NonNull` pointer which is necessarily non-null
        unsafe { NonNull { pointer: self.as_ptr() as *mut U } }
     86a:	9008      	str	r0, [sp, #32]
        let ptr: NonNull<T> = NonNull::from(slice).cast();
        // SAFETY: Similar to `IterMut::new`.
        unsafe {
            let end_or_len =
                if T::IS_ZST { without_provenance(len) } else { ptr.as_ptr().add(len) };
     86c:	e7ff      	b.n	86e <_ZN4core5slice4iter13Iter$LT$T$GT$3new17ha012cd68c91985feE+0x18>
        unsafe { mem::transmute::<Self, *mut T>(self) }
     86e:	9801      	ldr	r0, [sp, #4]
     870:	9900      	ldr	r1, [sp, #0]
     872:	9009      	str	r0, [sp, #36]	@ 0x24
     874:	eb00 2001 	add.w	r0, r0, r1, lsl #8
     878:	9002      	str	r0, [sp, #8]
     87a:	e7ff      	b.n	87c <_ZN4core5slice4iter13Iter$LT$T$GT$3new17ha012cd68c91985feE+0x26>

            Self { ptr, end_or_len, _marker: PhantomData }
     87c:	9801      	ldr	r0, [sp, #4]
     87e:	9902      	ldr	r1, [sp, #8]
        }
    }
     880:	b00a      	add	sp, #40	@ 0x28
     882:	bd80      	pop	{r7, pc}

00000884 <_ZN4core5slice4iter16IterMut$LT$T$GT$3new17hd287c3811530aa19E>:
#[stable(feature = "rust1", since = "1.0.0")]
unsafe impl<T: Send> Send for IterMut<'_, T> {}

impl<'a, T> IterMut<'a, T> {
    #[inline]
    pub(super) fn new(slice: &'a mut [T]) -> Self {
     884:	b580      	push	{r7, lr}
     886:	466f      	mov	r7, sp
     888:	b08a      	sub	sp, #40	@ 0x28
     88a:	9100      	str	r1, [sp, #0]
     88c:	9001      	str	r0, [sp, #4]
     88e:	9003      	str	r0, [sp, #12]
     890:	9104      	str	r1, [sp, #16]
        let len = slice.len();
     892:	9105      	str	r1, [sp, #20]
        unsafe { NonNull { pointer: r as *mut T } }
     894:	9006      	str	r0, [sp, #24]
     896:	9107      	str	r1, [sp, #28]
        unsafe { NonNull { pointer: self.as_ptr() as *mut U } }
     898:	9008      	str	r0, [sp, #32]
        //
        // See the `next_unchecked!` and `is_empty!` macros as well as the
        // `post_inc_start` method for more information.
        unsafe {
            let end_or_len =
                if T::IS_ZST { without_provenance_mut(len) } else { ptr.as_ptr().add(len) };
     89a:	e7ff      	b.n	89c <_ZN4core5slice4iter16IterMut$LT$T$GT$3new17hd287c3811530aa19E+0x18>
        unsafe { mem::transmute::<Self, *mut T>(self) }
     89c:	9801      	ldr	r0, [sp, #4]
     89e:	9900      	ldr	r1, [sp, #0]
     8a0:	9009      	str	r0, [sp, #36]	@ 0x24
     8a2:	4408      	add	r0, r1
     8a4:	9002      	str	r0, [sp, #8]
     8a6:	e7ff      	b.n	8a8 <_ZN4core5slice4iter16IterMut$LT$T$GT$3new17hd287c3811530aa19E+0x24>

            Self { ptr, end_or_len, _marker: PhantomData }
     8a8:	9801      	ldr	r0, [sp, #4]
     8aa:	9902      	ldr	r1, [sp, #8]
        }
    }
     8ac:	b00a      	add	sp, #40	@ 0x28
     8ae:	bd80      	pop	{r7, pc}

000008b0 <_ZN4core5slice4iter16IterMut$LT$T$GT$3new17hfd0a6c09fb961270E>:
    pub(super) fn new(slice: &'a mut [T]) -> Self {
     8b0:	b580      	push	{r7, lr}
     8b2:	466f      	mov	r7, sp
     8b4:	b08a      	sub	sp, #40	@ 0x28
     8b6:	9100      	str	r1, [sp, #0]
     8b8:	9001      	str	r0, [sp, #4]
     8ba:	9003      	str	r0, [sp, #12]
     8bc:	9104      	str	r1, [sp, #16]
        let len = slice.len();
     8be:	9105      	str	r1, [sp, #20]
        unsafe { NonNull { pointer: r as *mut T } }
     8c0:	9006      	str	r0, [sp, #24]
     8c2:	9107      	str	r1, [sp, #28]
        unsafe { NonNull { pointer: self.as_ptr() as *mut U } }
     8c4:	9008      	str	r0, [sp, #32]
                if T::IS_ZST { without_provenance_mut(len) } else { ptr.as_ptr().add(len) };
     8c6:	e7ff      	b.n	8c8 <_ZN4core5slice4iter16IterMut$LT$T$GT$3new17hfd0a6c09fb961270E+0x18>
        unsafe { mem::transmute::<Self, *mut T>(self) }
     8c8:	9801      	ldr	r0, [sp, #4]
     8ca:	9900      	ldr	r1, [sp, #0]
     8cc:	9009      	str	r0, [sp, #36]	@ 0x24
     8ce:	eb00 00c1 	add.w	r0, r0, r1, lsl #3
     8d2:	9002      	str	r0, [sp, #8]
     8d4:	e7ff      	b.n	8d6 <_ZN4core5slice4iter16IterMut$LT$T$GT$3new17hfd0a6c09fb961270E+0x26>
            Self { ptr, end_or_len, _marker: PhantomData }
     8d6:	9801      	ldr	r0, [sp, #4]
     8d8:	9902      	ldr	r1, [sp, #8]
    }
     8da:	b00a      	add	sp, #40	@ 0x28
     8dc:	bd80      	pop	{r7, pc}

000008de <_ZN63_$LT$I$u20$as$u20$core..iter..traits..collect..IntoIterator$GT$9into_iter17ha73d16b1813da6c8E>:
impl<I: Iterator> IntoIterator for I {
    type Item = I::Item;
    type IntoIter = I;

    #[inline]
    fn into_iter(self) -> I {
     8de:	b580      	push	{r7, lr}
     8e0:	466f      	mov	r7, sp
     8e2:	b082      	sub	sp, #8
     8e4:	9000      	str	r0, [sp, #0]
     8e6:	9101      	str	r1, [sp, #4]
        self
    }
     8e8:	b002      	add	sp, #8
     8ea:	bd80      	pop	{r7, pc}

000008ec <_ZN63_$LT$I$u20$as$u20$core..iter..traits..collect..IntoIterator$GT$9into_iter17hca4b17596e89abbbE>:
    fn into_iter(self) -> I {
     8ec:	b580      	push	{r7, lr}
     8ee:	466f      	mov	r7, sp
     8f0:	b082      	sub	sp, #8
     8f2:	9000      	str	r0, [sp, #0]
     8f4:	9101      	str	r1, [sp, #4]
    }
     8f6:	b002      	add	sp, #8
     8f8:	bd80      	pop	{r7, pc}

000008fa <_ZN63_$LT$I$u20$as$u20$core..iter..traits..collect..IntoIterator$GT$9into_iter17hfe3c64bb99cfde94E>:
    fn into_iter(self) -> I {
     8fa:	b580      	push	{r7, lr}
     8fc:	466f      	mov	r7, sp
     8fe:	b082      	sub	sp, #8
     900:	9000      	str	r0, [sp, #0]
     902:	9101      	str	r1, [sp, #4]
    }
     904:	b002      	add	sp, #8
     906:	bd80      	pop	{r7, pc}

00000908 <_ZN91_$LT$core..slice..iter..Iter$LT$T$GT$$u20$as$u20$core..iter..traits..iterator..Iterator$GT$4next17ha62b596e8603dbbaE>:
        #[stable(feature = "rust1", since = "1.0.0")]
        impl<'a, T> Iterator for $name<'a, T> {
            type Item = $elem;

            #[inline]
            fn next(&mut self) -> Option<$elem> {
     908:	b580      	push	{r7, lr}
     90a:	466f      	mov	r7, sp
     90c:	b08d      	sub	sp, #52	@ 0x34
     90e:	9000      	str	r0, [sp, #0]
     910:	9006      	str	r0, [sp, #24]
     912:	2101      	movs	r1, #1
        #[rustc_const_stable(feature = "unchecked_math", since = "1.79.0")]
        #[must_use = "this returns the result of the operation, \
                      without modifying the original"]
        #[inline(always)]
        #[cfg_attr(miri, track_caller)] // even without panics, this helps for Miri backtraces
        pub const unsafe fn unchecked_sub(self, rhs: Self) -> Self {
     914:	9107      	str	r1, [sp, #28]
    #[inline(always)]
    #[cfg_attr(miri, track_caller)] // even without panics, this helps for Miri backtraces
    #[must_use = "returns a new pointer rather than modifying its argument"]
    #[stable(feature = "non_null_convenience", since = "1.80.0")]
    #[rustc_const_stable(feature = "non_null_convenience", since = "1.80.0")]
    pub const unsafe fn add(self, count: usize) -> Self
     916:	9108      	str	r1, [sp, #32]
                // intentionally not using the helpers because this is
                // one of the most mono'd things in the library.

                let ptr = self.ptr;
     918:	6801      	ldr	r1, [r0, #0]
     91a:	9103      	str	r1, [sp, #12]
                let end_or_len = self.end_or_len;
     91c:	6840      	ldr	r0, [r0, #4]
     91e:	9001      	str	r0, [sp, #4]
     920:	9009      	str	r0, [sp, #36]	@ 0x24
                // SAFETY: See inner comments. (For some reason having multiple
                // block breaks inlining this -- if you can fix that please do!)
                unsafe {
                    if T::IS_ZST {
     922:	e7ff      	b.n	924 <_ZN91_$LT$core..slice..iter..Iter$LT$T$GT$$u20$as$u20$core..iter..traits..iterator..Iterator$GT$4next17ha62b596e8603dbbaE+0x1c>
     924:	9801      	ldr	r0, [sp, #4]
     926:	a903      	add	r1, sp, #12
                        self.end_or_len = without_provenance_mut(len.unchecked_sub(1));
                    } else {
                        // SAFETY: by type invariant, the `end_or_len` field is always
                        // non-null for a non-ZST pointee.  (This transmute ensures we
                        // get `!nonnull` metadata on the load of the field.)
                        if ptr == crate::intrinsics::transmute::<$ptr, NonNull<T>>(end_or_len) {
     928:	910a      	str	r1, [sp, #40]	@ 0x28
     92a:	9004      	str	r0, [sp, #16]
     92c:	a804      	add	r0, sp, #16
     92e:	900b      	str	r0, [sp, #44]	@ 0x2c
        unsafe { mem::transmute::<Self, *mut T>(self) }
     930:	9803      	ldr	r0, [sp, #12]
     932:	9904      	ldr	r1, [sp, #16]
     934:	4288      	cmp	r0, r1
     936:	d006      	beq.n	946 <_ZN91_$LT$core..slice..iter..Iter$LT$T$GT$$u20$as$u20$core..iter..traits..iterator..Iterator$GT$4next17ha62b596e8603dbbaE+0x3e>
     938:	e7ff      	b.n	93a <_ZN91_$LT$core..slice..iter..Iter$LT$T$GT$$u20$as$u20$core..iter..traits..iterator..Iterator$GT$4next17ha62b596e8603dbbaE+0x32>
    {
        // SAFETY: the caller must uphold the safety contract for `offset`.
        // Additionally safety contract of `offset` guarantees that the resulting pointer is
        // pointing to an allocation, there can't be an allocation at null, thus it's safe to
        // construct `NonNull`.
        unsafe { NonNull { pointer: intrinsics::offset(self.as_ptr(), count) } }
     93a:	9900      	ldr	r1, [sp, #0]
     93c:	9803      	ldr	r0, [sp, #12]
     93e:	f500 7080 	add.w	r0, r0, #256	@ 0x100
                            return None;
                        }
                        // SAFETY: since it's not empty, per the check above, moving
                        // forward one keeps us inside the slice, and this is valid.
                        self.ptr = ptr.add(1);
     942:	6008      	str	r0, [r1, #0]
                    if T::IS_ZST {
     944:	e002      	b.n	94c <_ZN91_$LT$core..slice..iter..Iter$LT$T$GT$$u20$as$u20$core..iter..traits..iterator..Iterator$GT$4next17ha62b596e8603dbbaE+0x44>
     946:	2000      	movs	r0, #0
                            return None;
     948:	9002      	str	r0, [sp, #8]
     94a:	e009      	b.n	960 <_ZN91_$LT$core..slice..iter..Iter$LT$T$GT$$u20$as$u20$core..iter..traits..iterator..Iterator$GT$4next17ha62b596e8603dbbaE+0x58>
                    }
                    // SAFETY: Now that we know it wasn't empty and we've moved past
                    // the first one (to avoid giving a duplicate `&mut` next time),
                    // we can give out a reference to it.
                    Some({ptr}.$into_ref())
     94c:	9803      	ldr	r0, [sp, #12]
     94e:	9005      	str	r0, [sp, #20]
     950:	a805      	add	r0, sp, #20
     952:	900c      	str	r0, [sp, #48]	@ 0x30
        self as _
     954:	9803      	ldr	r0, [sp, #12]
     956:	9002      	str	r0, [sp, #8]
                }
            }
     958:	e7ff      	b.n	95a <_ZN91_$LT$core..slice..iter..Iter$LT$T$GT$$u20$as$u20$core..iter..traits..iterator..Iterator$GT$4next17ha62b596e8603dbbaE+0x52>
     95a:	9802      	ldr	r0, [sp, #8]
     95c:	b00d      	add	sp, #52	@ 0x34
     95e:	bd80      	pop	{r7, pc}
     960:	e7fb      	b.n	95a <_ZN91_$LT$core..slice..iter..Iter$LT$T$GT$$u20$as$u20$core..iter..traits..iterator..Iterator$GT$4next17ha62b596e8603dbbaE+0x52>

00000962 <_ZN91_$LT$core..slice..iter..Iter$LT$T$GT$$u20$as$u20$core..iter..traits..iterator..Iterator$GT$8find_map17h591791fb5ca92d1fE>:

            // We override the default implementation, which uses `try_fold`,
            // because this simple implementation generates less LLVM IR and is
            // faster to compile.
            #[inline]
            fn find_map<B, F>(&mut self, mut f: F) -> Option<B>
     962:	b580      	push	{r7, lr}
     964:	466f      	mov	r7, sp
     966:	b088      	sub	sp, #32
     968:	9000      	str	r0, [sp, #0]
     96a:	9005      	str	r0, [sp, #20]
            where
                Self: Sized,
                F: FnMut(Self::Item) -> Option<B>,
            {
                while let Some(x) = self.next() {
     96c:	e7ff      	b.n	96e <_ZN91_$LT$core..slice..iter..Iter$LT$T$GT$$u20$as$u20$core..iter..traits..iterator..Iterator$GT$8find_map17h591791fb5ca92d1fE+0xc>
     96e:	9800      	ldr	r0, [sp, #0]
     970:	f7ff ffca 	bl	908 <_ZN91_$LT$core..slice..iter..Iter$LT$T$GT$$u20$as$u20$core..iter..traits..iterator..Iterator$GT$4next17ha62b596e8603dbbaE>
     974:	9003      	str	r0, [sp, #12]
     976:	9803      	ldr	r0, [sp, #12]
     978:	b150      	cbz	r0, 990 <_ZN91_$LT$core..slice..iter..Iter$LT$T$GT$$u20$as$u20$core..iter..traits..iterator..Iterator$GT$8find_map17h591791fb5ca92d1fE+0x2e>
     97a:	e7ff      	b.n	97c <_ZN91_$LT$core..slice..iter..Iter$LT$T$GT$$u20$as$u20$core..iter..traits..iterator..Iterator$GT$8find_map17h591791fb5ca92d1fE+0x1a>
     97c:	9903      	ldr	r1, [sp, #12]
     97e:	9106      	str	r1, [sp, #24]
     980:	f1a7 0019 	sub.w	r0, r7, #25
                    if let Some(y) = f(x) {
     984:	f001 fdf4 	bl	2570 <_ZN4core3ops8function5FnMut8call_mut17h8c995993caba2854E>
     988:	9004      	str	r0, [sp, #16]
     98a:	9804      	ldr	r0, [sp, #16]
     98c:	b918      	cbnz	r0, 996 <_ZN91_$LT$core..slice..iter..Iter$LT$T$GT$$u20$as$u20$core..iter..traits..iterator..Iterator$GT$8find_map17h591791fb5ca92d1fE+0x34>
     98e:	e006      	b.n	99e <_ZN91_$LT$core..slice..iter..Iter$LT$T$GT$$u20$as$u20$core..iter..traits..iterator..Iterator$GT$8find_map17h591791fb5ca92d1fE+0x3c>
     990:	2000      	movs	r0, #0
                        return Some(y);
                    }
                }
                None
     992:	9002      	str	r0, [sp, #8]
            }
     994:	e004      	b.n	9a0 <_ZN91_$LT$core..slice..iter..Iter$LT$T$GT$$u20$as$u20$core..iter..traits..iterator..Iterator$GT$8find_map17h591791fb5ca92d1fE+0x3e>
                    if let Some(y) = f(x) {
     996:	9804      	ldr	r0, [sp, #16]
     998:	9007      	str	r0, [sp, #28]
                        return Some(y);
     99a:	9002      	str	r0, [sp, #8]
            }
     99c:	e000      	b.n	9a0 <_ZN91_$LT$core..slice..iter..Iter$LT$T$GT$$u20$as$u20$core..iter..traits..iterator..Iterator$GT$8find_map17h591791fb5ca92d1fE+0x3e>
                while let Some(x) = self.next() {
     99e:	e7e6      	b.n	96e <_ZN91_$LT$core..slice..iter..Iter$LT$T$GT$$u20$as$u20$core..iter..traits..iterator..Iterator$GT$8find_map17h591791fb5ca92d1fE+0xc>
            }
     9a0:	9802      	ldr	r0, [sp, #8]
     9a2:	b008      	add	sp, #32
     9a4:	bd80      	pop	{r7, pc}

000009a6 <_ZN94_$LT$core..slice..iter..IterMut$LT$T$GT$$u20$as$u20$core..iter..traits..iterator..Iterator$GT$4next17h0bfa23dedee62d01E>:
            fn next(&mut self) -> Option<$elem> {
     9a6:	b580      	push	{r7, lr}
     9a8:	466f      	mov	r7, sp
     9aa:	b08d      	sub	sp, #52	@ 0x34
     9ac:	9000      	str	r0, [sp, #0]
     9ae:	9006      	str	r0, [sp, #24]
     9b0:	2101      	movs	r1, #1
     9b2:	9107      	str	r1, [sp, #28]
    pub const unsafe fn add(self, count: usize) -> Self
     9b4:	9108      	str	r1, [sp, #32]
                let ptr = self.ptr;
     9b6:	6801      	ldr	r1, [r0, #0]
     9b8:	9103      	str	r1, [sp, #12]
                let end_or_len = self.end_or_len;
     9ba:	6840      	ldr	r0, [r0, #4]
     9bc:	9001      	str	r0, [sp, #4]
     9be:	9009      	str	r0, [sp, #36]	@ 0x24
                    if T::IS_ZST {
     9c0:	e7ff      	b.n	9c2 <_ZN94_$LT$core..slice..iter..IterMut$LT$T$GT$$u20$as$u20$core..iter..traits..iterator..Iterator$GT$4next17h0bfa23dedee62d01E+0x1c>
     9c2:	9801      	ldr	r0, [sp, #4]
     9c4:	a903      	add	r1, sp, #12
                        if ptr == crate::intrinsics::transmute::<$ptr, NonNull<T>>(end_or_len) {
     9c6:	910a      	str	r1, [sp, #40]	@ 0x28
     9c8:	9004      	str	r0, [sp, #16]
     9ca:	a804      	add	r0, sp, #16
     9cc:	900b      	str	r0, [sp, #44]	@ 0x2c
        unsafe { mem::transmute::<Self, *mut T>(self) }
     9ce:	9803      	ldr	r0, [sp, #12]
     9d0:	9904      	ldr	r1, [sp, #16]
     9d2:	4288      	cmp	r0, r1
     9d4:	d005      	beq.n	9e2 <_ZN94_$LT$core..slice..iter..IterMut$LT$T$GT$$u20$as$u20$core..iter..traits..iterator..Iterator$GT$4next17h0bfa23dedee62d01E+0x3c>
     9d6:	e7ff      	b.n	9d8 <_ZN94_$LT$core..slice..iter..IterMut$LT$T$GT$$u20$as$u20$core..iter..traits..iterator..Iterator$GT$4next17h0bfa23dedee62d01E+0x32>
        unsafe { NonNull { pointer: intrinsics::offset(self.as_ptr(), count) } }
     9d8:	9900      	ldr	r1, [sp, #0]
     9da:	9803      	ldr	r0, [sp, #12]
     9dc:	3001      	adds	r0, #1
                        self.ptr = ptr.add(1);
     9de:	6008      	str	r0, [r1, #0]
                    if T::IS_ZST {
     9e0:	e002      	b.n	9e8 <_ZN94_$LT$core..slice..iter..IterMut$LT$T$GT$$u20$as$u20$core..iter..traits..iterator..Iterator$GT$4next17h0bfa23dedee62d01E+0x42>
     9e2:	2000      	movs	r0, #0
                            return None;
     9e4:	9002      	str	r0, [sp, #8]
     9e6:	e009      	b.n	9fc <_ZN94_$LT$core..slice..iter..IterMut$LT$T$GT$$u20$as$u20$core..iter..traits..iterator..Iterator$GT$4next17h0bfa23dedee62d01E+0x56>
                    Some({ptr}.$into_ref())
     9e8:	9803      	ldr	r0, [sp, #12]
     9ea:	9005      	str	r0, [sp, #20]
     9ec:	a805      	add	r0, sp, #20
     9ee:	900c      	str	r0, [sp, #48]	@ 0x30
        unsafe { &mut *self.as_ptr() }
     9f0:	9805      	ldr	r0, [sp, #20]
     9f2:	9002      	str	r0, [sp, #8]
            }
     9f4:	e7ff      	b.n	9f6 <_ZN94_$LT$core..slice..iter..IterMut$LT$T$GT$$u20$as$u20$core..iter..traits..iterator..Iterator$GT$4next17h0bfa23dedee62d01E+0x50>
     9f6:	9802      	ldr	r0, [sp, #8]
     9f8:	b00d      	add	sp, #52	@ 0x34
     9fa:	bd80      	pop	{r7, pc}
     9fc:	e7fb      	b.n	9f6 <_ZN94_$LT$core..slice..iter..IterMut$LT$T$GT$$u20$as$u20$core..iter..traits..iterator..Iterator$GT$4next17h0bfa23dedee62d01E+0x50>

000009fe <_ZN94_$LT$core..slice..iter..IterMut$LT$T$GT$$u20$as$u20$core..iter..traits..iterator..Iterator$GT$4next17h7eb9ceb88457eba8E>:
            fn next(&mut self) -> Option<$elem> {
     9fe:	b580      	push	{r7, lr}
     a00:	466f      	mov	r7, sp
     a02:	b08d      	sub	sp, #52	@ 0x34
     a04:	9000      	str	r0, [sp, #0]
     a06:	9006      	str	r0, [sp, #24]
     a08:	2101      	movs	r1, #1
     a0a:	9107      	str	r1, [sp, #28]
    pub const unsafe fn add(self, count: usize) -> Self
     a0c:	9108      	str	r1, [sp, #32]
                let ptr = self.ptr;
     a0e:	6801      	ldr	r1, [r0, #0]
     a10:	9103      	str	r1, [sp, #12]
                let end_or_len = self.end_or_len;
     a12:	6840      	ldr	r0, [r0, #4]
     a14:	9001      	str	r0, [sp, #4]
     a16:	9009      	str	r0, [sp, #36]	@ 0x24
                    if T::IS_ZST {
     a18:	e7ff      	b.n	a1a <_ZN94_$LT$core..slice..iter..IterMut$LT$T$GT$$u20$as$u20$core..iter..traits..iterator..Iterator$GT$4next17h7eb9ceb88457eba8E+0x1c>
     a1a:	9801      	ldr	r0, [sp, #4]
     a1c:	a903      	add	r1, sp, #12
                        if ptr == crate::intrinsics::transmute::<$ptr, NonNull<T>>(end_or_len) {
     a1e:	910a      	str	r1, [sp, #40]	@ 0x28
     a20:	9004      	str	r0, [sp, #16]
     a22:	a804      	add	r0, sp, #16
     a24:	900b      	str	r0, [sp, #44]	@ 0x2c
        unsafe { mem::transmute::<Self, *mut T>(self) }
     a26:	9803      	ldr	r0, [sp, #12]
     a28:	9904      	ldr	r1, [sp, #16]
     a2a:	4288      	cmp	r0, r1
     a2c:	d005      	beq.n	a3a <_ZN94_$LT$core..slice..iter..IterMut$LT$T$GT$$u20$as$u20$core..iter..traits..iterator..Iterator$GT$4next17h7eb9ceb88457eba8E+0x3c>
     a2e:	e7ff      	b.n	a30 <_ZN94_$LT$core..slice..iter..IterMut$LT$T$GT$$u20$as$u20$core..iter..traits..iterator..Iterator$GT$4next17h7eb9ceb88457eba8E+0x32>
        unsafe { NonNull { pointer: intrinsics::offset(self.as_ptr(), count) } }
     a30:	9900      	ldr	r1, [sp, #0]
     a32:	9803      	ldr	r0, [sp, #12]
     a34:	3008      	adds	r0, #8
                        self.ptr = ptr.add(1);
     a36:	6008      	str	r0, [r1, #0]
                    if T::IS_ZST {
     a38:	e002      	b.n	a40 <_ZN94_$LT$core..slice..iter..IterMut$LT$T$GT$$u20$as$u20$core..iter..traits..iterator..Iterator$GT$4next17h7eb9ceb88457eba8E+0x42>
     a3a:	2000      	movs	r0, #0
                            return None;
     a3c:	9002      	str	r0, [sp, #8]
     a3e:	e009      	b.n	a54 <_ZN94_$LT$core..slice..iter..IterMut$LT$T$GT$$u20$as$u20$core..iter..traits..iterator..Iterator$GT$4next17h7eb9ceb88457eba8E+0x56>
                    Some({ptr}.$into_ref())
     a40:	9803      	ldr	r0, [sp, #12]
     a42:	9005      	str	r0, [sp, #20]
     a44:	a805      	add	r0, sp, #20
     a46:	900c      	str	r0, [sp, #48]	@ 0x30
        unsafe { &mut *self.as_ptr() }
     a48:	9805      	ldr	r0, [sp, #20]
     a4a:	9002      	str	r0, [sp, #8]
            }
     a4c:	e7ff      	b.n	a4e <_ZN94_$LT$core..slice..iter..IterMut$LT$T$GT$$u20$as$u20$core..iter..traits..iterator..Iterator$GT$4next17h7eb9ceb88457eba8E+0x50>
     a4e:	9802      	ldr	r0, [sp, #8]
     a50:	b00d      	add	sp, #52	@ 0x34
     a52:	bd80      	pop	{r7, pc}
     a54:	e7fb      	b.n	a4e <_ZN94_$LT$core..slice..iter..IterMut$LT$T$GT$$u20$as$u20$core..iter..traits..iterator..Iterator$GT$4next17h7eb9ceb88457eba8E+0x50>

00000a56 <_ZN59_$LT$F$u20$as$u20$core..future..into_future..IntoFuture$GT$11into_future17h084bf453f79ba1fbE>:
#[stable(feature = "into_future", since = "1.64.0")]
impl<F: Future> IntoFuture for F {
    type Output = F::Output;
    type IntoFuture = F;

    fn into_future(self) -> Self::IntoFuture {
     a56:	b580      	push	{r7, lr}
     a58:	466f      	mov	r7, sp
     a5a:	2260      	movs	r2, #96	@ 0x60
        self
     a5c:	f00a fded 	bl	b63a <__aeabi_memcpy8>
    }
     a60:	bd80      	pop	{r7, pc}

00000a62 <_ZN59_$LT$F$u20$as$u20$core..future..into_future..IntoFuture$GT$11into_future17h896d1013a979303dE>:
    fn into_future(self) -> Self::IntoFuture {
     a62:	b580      	push	{r7, lr}
     a64:	466f      	mov	r7, sp
     a66:	2258      	movs	r2, #88	@ 0x58
        self
     a68:	f00a fde7 	bl	b63a <__aeabi_memcpy8>
    }
     a6c:	bd80      	pop	{r7, pc}

00000a6e <_ZN59_$LT$F$u20$as$u20$core..future..into_future..IntoFuture$GT$11into_future17h90e0f18db2d5d939E>:
    fn into_future(self) -> Self::IntoFuture {
     a6e:	b580      	push	{r7, lr}
     a70:	466f      	mov	r7, sp
     a72:	2288      	movs	r2, #136	@ 0x88
        self
     a74:	f00a fde1 	bl	b63a <__aeabi_memcpy8>
    }
     a78:	bd80      	pop	{r7, pc}

00000a7a <_ZN59_$LT$F$u20$as$u20$core..future..into_future..IntoFuture$GT$11into_future17hdcc650a88c2ece8cE>:
    fn into_future(self) -> Self::IntoFuture {
     a7a:	b580      	push	{r7, lr}
     a7c:	466f      	mov	r7, sp
     a7e:	2278      	movs	r2, #120	@ 0x78
        self
     a80:	f00a fddb 	bl	b63a <__aeabi_memcpy8>
    }
     a84:	bd80      	pop	{r7, pc}

00000a86 <_ZN30microbit_async_display_example7display26LedMatrix$LT$P$C$_$C$_$GT$3new17hf46a222811fa3cf4E>:
    /// ```ignore
    /// let rows = [pin1, pin2, pin3, pin4, pin5];
    /// let cols = [pin6, pin7, pin8, pin9, pin10];
    /// let mut display = LedMatrix::new(rows, cols);
    /// ```
    pub fn new(pin_rows: [P; ROWS], pin_cols: [P; COLS]) -> Self {
     a86:	b5f0      	push	{r4, r5, r6, r7, lr}
     a88:	af03      	add	r7, sp, #12
     a8a:	f84d bd04 	str.w	fp, [sp, #-4]!
     a8e:	b08e      	sub	sp, #56	@ 0x38
     a90:	9201      	str	r2, [sp, #4]
     a92:	9100      	str	r1, [sp, #0]
        LedMatrix {
            pin_rows,
            pin_cols,
            frame_buffer: Frame::empty(),
     a94:	9003      	str	r0, [sp, #12]
     a96:	a804      	add	r0, sp, #16
     a98:	9002      	str	r0, [sp, #8]
     a9a:	f002 f870 	bl	2b7e <_ZN30microbit_async_display_example5types18Frame$LT$_$C$_$GT$5empty17h8a63f91ef58e935cE>
            row_p: 0,
            brightness: Default::default(),
     a9e:	f7ff fcbf 	bl	420 <_ZN92_$LT$microbit_async_display_example..types..Brightness$u20$as$u20$core..default..Default$GT$7default17hb3a063483d781c24E>
     aa2:	f8dd c000 	ldr.w	ip, [sp]
     aa6:	9a01      	ldr	r2, [sp, #4]
     aa8:	9b02      	ldr	r3, [sp, #8]
     aaa:	9903      	ldr	r1, [sp, #12]
        LedMatrix {
     aac:	f89c e004 	ldrb.w	lr, [ip, #4]
     ab0:	f881 e030 	strb.w	lr, [r1, #48]	@ 0x30
     ab4:	f8dc c000 	ldr.w	ip, [ip]
     ab8:	f8c1 c02c 	str.w	ip, [r1, #44]	@ 0x2c
     abc:	f892 c004 	ldrb.w	ip, [r2, #4]
     ac0:	f881 c035 	strb.w	ip, [r1, #53]	@ 0x35
     ac4:	6812      	ldr	r2, [r2, #0]
     ac6:	f8c1 2031 	str.w	r2, [r1, #49]	@ 0x31
     aca:	460a      	mov	r2, r1
     acc:	e8b3 5070 	ldmia.w	r3!, {r4, r5, r6, ip, lr}
     ad0:	e8a2 5070 	stmia.w	r2!, {r4, r5, r6, ip, lr}
     ad4:	e893 5070 	ldmia.w	r3, {r4, r5, r6, ip, lr}
     ad8:	e882 5070 	stmia.w	r2, {r4, r5, r6, ip, lr}
     adc:	2200      	movs	r2, #0
     ade:	628a      	str	r2, [r1, #40]	@ 0x28
     ae0:	f881 0036 	strb.w	r0, [r1, #54]	@ 0x36
        }
    }
     ae4:	b00e      	add	sp, #56	@ 0x38
     ae6:	f85d bb04 	ldr.w	fp, [sp], #4
     aea:	bdf0      	pop	{r4, r5, r6, r7, pc}

00000aec <_ZN30microbit_async_display_example7display26LedMatrix$LT$P$C$_$C$_$GT$5clear17hb390533ac5a580c4E>:
    /// # Example
    /// ```ignore
    /// display.clear();
    /// // All LEDs are now off
    /// ```
    pub fn clear(&mut self) {
     aec:	b580      	push	{r7, lr}
     aee:	466f      	mov	r7, sp
     af0:	b08a      	sub	sp, #40	@ 0x28
     af2:	9000      	str	r0, [sp, #0]
     af4:	9007      	str	r0, [sp, #28]
        self.frame_buffer.clear();
     af6:	f002 f876 	bl	2be6 <_ZN30microbit_async_display_example5types18Frame$LT$_$C$_$GT$5clear17h7095c9faaf3a5846E>
     afa:	9800      	ldr	r0, [sp, #0]
        for row in self.pin_rows.iter_mut() {
     afc:	302c      	adds	r0, #44	@ 0x2c
     afe:	2105      	movs	r1, #5
     b00:	f002 fb01 	bl	3106 <_ZN4core5slice29_$LT$impl$u20$$u5b$T$u5d$$GT$8iter_mut17h2b28b071caa8b06cE>
     b04:	f7ff feeb 	bl	8de <_ZN63_$LT$I$u20$as$u20$core..iter..traits..collect..IntoIterator$GT$9into_iter17ha73d16b1813da6c8E>
     b08:	9001      	str	r0, [sp, #4]
     b0a:	9102      	str	r1, [sp, #8]
     b0c:	e7ff      	b.n	b0e <_ZN30microbit_async_display_example7display26LedMatrix$LT$P$C$_$C$_$GT$5clear17hb390533ac5a580c4E+0x22>
     b0e:	a801      	add	r0, sp, #4
     b10:	f7ff ff49 	bl	9a6 <_ZN94_$LT$core..slice..iter..IterMut$LT$T$GT$$u20$as$u20$core..iter..traits..iterator..Iterator$GT$4next17h0bfa23dedee62d01E>
     b14:	9003      	str	r0, [sp, #12]
     b16:	9803      	ldr	r0, [sp, #12]
     b18:	b138      	cbz	r0, b2a <_ZN30microbit_async_display_example7display26LedMatrix$LT$P$C$_$C$_$GT$5clear17hb390533ac5a580c4E+0x3e>
     b1a:	e7ff      	b.n	b1c <_ZN30microbit_async_display_example7display26LedMatrix$LT$P$C$_$C$_$GT$5clear17hb390533ac5a580c4E+0x30>
     b1c:	9803      	ldr	r0, [sp, #12]
     b1e:	9009      	str	r0, [sp, #36]	@ 0x24
            row.set_high().ok();
     b20:	f002 fed3 	bl	38ca <_ZN78_$LT$embassy_nrf..gpio..Output$u20$as$u20$embedded_hal..digital..OutputPin$GT$8set_high17hb140d5bce220f12aE>
     b24:	f002 f933 	bl	2d8e <_ZN4core6result19Result$LT$T$C$E$GT$2ok17h56b6b61e96f771c7E>
     b28:	e7f1      	b.n	b0e <_ZN30microbit_async_display_example7display26LedMatrix$LT$P$C$_$C$_$GT$5clear17hb390533ac5a580c4E+0x22>
        }
        for col in self.pin_cols.iter_mut() {
     b2a:	9800      	ldr	r0, [sp, #0]
     b2c:	3031      	adds	r0, #49	@ 0x31
     b2e:	2105      	movs	r1, #5
     b30:	f002 fae9 	bl	3106 <_ZN4core5slice29_$LT$impl$u20$$u5b$T$u5d$$GT$8iter_mut17h2b28b071caa8b06cE>
     b34:	f7ff fed3 	bl	8de <_ZN63_$LT$I$u20$as$u20$core..iter..traits..collect..IntoIterator$GT$9into_iter17ha73d16b1813da6c8E>
     b38:	9004      	str	r0, [sp, #16]
     b3a:	9105      	str	r1, [sp, #20]
     b3c:	e7ff      	b.n	b3e <_ZN30microbit_async_display_example7display26LedMatrix$LT$P$C$_$C$_$GT$5clear17hb390533ac5a580c4E+0x52>
     b3e:	a804      	add	r0, sp, #16
     b40:	f7ff ff31 	bl	9a6 <_ZN94_$LT$core..slice..iter..IterMut$LT$T$GT$$u20$as$u20$core..iter..traits..iterator..Iterator$GT$4next17h0bfa23dedee62d01E>
     b44:	9006      	str	r0, [sp, #24]
     b46:	9806      	ldr	r0, [sp, #24]
     b48:	b138      	cbz	r0, b5a <_ZN30microbit_async_display_example7display26LedMatrix$LT$P$C$_$C$_$GT$5clear17hb390533ac5a580c4E+0x6e>
     b4a:	e7ff      	b.n	b4c <_ZN30microbit_async_display_example7display26LedMatrix$LT$P$C$_$C$_$GT$5clear17hb390533ac5a580c4E+0x60>
     b4c:	9806      	ldr	r0, [sp, #24]
     b4e:	9008      	str	r0, [sp, #32]
            col.set_high().ok();
     b50:	f002 febb 	bl	38ca <_ZN78_$LT$embassy_nrf..gpio..Output$u20$as$u20$embedded_hal..digital..OutputPin$GT$8set_high17hb140d5bce220f12aE>
     b54:	f002 f91b 	bl	2d8e <_ZN4core6result19Result$LT$T$C$E$GT$2ok17h56b6b61e96f771c7E>
     b58:	e7f1      	b.n	b3e <_ZN30microbit_async_display_example7display26LedMatrix$LT$P$C$_$C$_$GT$5clear17hb390533ac5a580c4E+0x52>
        }
    }
     b5a:	b00a      	add	sp, #40	@ 0x28
     b5c:	bd80      	pop	{r7, pc}

00000b5e <_ZN30microbit_async_display_example7display26LedMatrix$LT$P$C$_$C$_$GT$5apply17ha4d902a50f6e9c9dE>:
    /// # Example
    /// ```ignore
    /// let frame: Frame<5, 5> = 'A'.into();
    /// display.apply(frame);
    /// ```
    pub fn apply(&mut self, frame: Frame<COLS, ROWS>) {
     b5e:	b5d0      	push	{r4, r6, r7, lr}
     b60:	af02      	add	r7, sp, #8
     b62:	b081      	sub	sp, #4
     b64:	9000      	str	r0, [sp, #0]
        self.frame_buffer = frame;
     b66:	e8b1 501c 	ldmia.w	r1!, {r2, r3, r4, ip, lr}
     b6a:	e8a0 501c 	stmia.w	r0!, {r2, r3, r4, ip, lr}
     b6e:	e891 501c 	ldmia.w	r1, {r2, r3, r4, ip, lr}
     b72:	e880 501c 	stmia.w	r0, {r2, r3, r4, ip, lr}
    }
     b76:	b001      	add	sp, #4
     b78:	bdd0      	pop	{r4, r6, r7, pc}

00000b7a <_ZN30microbit_async_display_example7display26LedMatrix$LT$P$C$_$C$_$GT$14set_brightness17h6b9aafaaf56ca5aaE>:
    /// # Example
    /// ```ignore
    /// display.set_brightness(Brightness::MAX);  // Maximum brightness
    /// display.set_brightness(Brightness::new(3)); // Custom level
    /// ```
    pub fn set_brightness(&mut self, brightness: Brightness) {
     b7a:	b580      	push	{r7, lr}
     b7c:	466f      	mov	r7, sp
     b7e:	b082      	sub	sp, #8
     b80:	9000      	str	r0, [sp, #0]
     b82:	f807 1c01 	strb.w	r1, [r7, #-1]
        self.brightness = brightness;
     b86:	f880 1036 	strb.w	r1, [r0, #54]	@ 0x36
    }
     b8a:	b002      	add	sp, #8
     b8c:	bd80      	pop	{r7, pc}

00000b8e <_ZN30microbit_async_display_example7display26LedMatrix$LT$P$C$_$C$_$GT$6render17h38b0b998779ccae4E>:
    pub fn decrease_brightness(&mut self) {
        self.brightness -= 1;
    }

    /// Perform a full refresh of the display based on the current frame buffer
    pub fn render(&mut self) {
     b8e:	b580      	push	{r7, lr}
     b90:	466f      	mov	r7, sp
     b92:	b0a0      	sub	sp, #128	@ 0x80
     b94:	900d      	str	r0, [sp, #52]	@ 0x34
     b96:	901c      	str	r0, [sp, #112]	@ 0x70
        for row in self.pin_rows.iter_mut() {
     b98:	302c      	adds	r0, #44	@ 0x2c
     b9a:	2105      	movs	r1, #5
     b9c:	f002 fab3 	bl	3106 <_ZN4core5slice29_$LT$impl$u20$$u5b$T$u5d$$GT$8iter_mut17h2b28b071caa8b06cE>
     ba0:	f7ff fe9d 	bl	8de <_ZN63_$LT$I$u20$as$u20$core..iter..traits..collect..IntoIterator$GT$9into_iter17ha73d16b1813da6c8E>
     ba4:	900e      	str	r0, [sp, #56]	@ 0x38
     ba6:	910f      	str	r1, [sp, #60]	@ 0x3c
     ba8:	e7ff      	b.n	baa <_ZN30microbit_async_display_example7display26LedMatrix$LT$P$C$_$C$_$GT$6render17h38b0b998779ccae4E+0x1c>
     baa:	a80e      	add	r0, sp, #56	@ 0x38
     bac:	f7ff fefb 	bl	9a6 <_ZN94_$LT$core..slice..iter..IterMut$LT$T$GT$$u20$as$u20$core..iter..traits..iterator..Iterator$GT$4next17h0bfa23dedee62d01E>
     bb0:	9010      	str	r0, [sp, #64]	@ 0x40
     bb2:	9810      	ldr	r0, [sp, #64]	@ 0x40
     bb4:	b138      	cbz	r0, bc6 <_ZN30microbit_async_display_example7display26LedMatrix$LT$P$C$_$C$_$GT$6render17h38b0b998779ccae4E+0x38>
     bb6:	e7ff      	b.n	bb8 <_ZN30microbit_async_display_example7display26LedMatrix$LT$P$C$_$C$_$GT$6render17h38b0b998779ccae4E+0x2a>
     bb8:	9810      	ldr	r0, [sp, #64]	@ 0x40
     bba:	901f      	str	r0, [sp, #124]	@ 0x7c
            row.set_low().ok();
     bbc:	f002 fe8d 	bl	38da <_ZN78_$LT$embassy_nrf..gpio..Output$u20$as$u20$embedded_hal..digital..OutputPin$GT$7set_low17h0a9fb674b5f9e687E>
     bc0:	f002 f8e5 	bl	2d8e <_ZN4core6result19Result$LT$T$C$E$GT$2ok17h56b6b61e96f771c7E>
     bc4:	e7f1      	b.n	baa <_ZN30microbit_async_display_example7display26LedMatrix$LT$P$C$_$C$_$GT$6render17h38b0b998779ccae4E+0x1c>
        }

        for (cid, col) in self.pin_cols.iter_mut().enumerate() {
     bc6:	980d      	ldr	r0, [sp, #52]	@ 0x34
     bc8:	3031      	adds	r0, #49	@ 0x31
     bca:	2105      	movs	r1, #5
     bcc:	f002 fa9b 	bl	3106 <_ZN4core5slice29_$LT$impl$u20$$u5b$T$u5d$$GT$8iter_mut17h2b28b071caa8b06cE>
     bd0:	900b      	str	r0, [sp, #44]	@ 0x2c
     bd2:	460a      	mov	r2, r1
     bd4:	990b      	ldr	r1, [sp, #44]	@ 0x2c
     bd6:	a814      	add	r0, sp, #80	@ 0x50
     bd8:	900c      	str	r0, [sp, #48]	@ 0x30
     bda:	f7ff fe2e 	bl	83a <_ZN4core4iter6traits8iterator8Iterator9enumerate17h98d390c1ea5f9ce6E>
     bde:	990c      	ldr	r1, [sp, #48]	@ 0x30
     be0:	a811      	add	r0, sp, #68	@ 0x44
     be2:	f001 fa41 	bl	2068 <_ZN63_$LT$I$u20$as$u20$core..iter..traits..collect..IntoIterator$GT$9into_iter17h9839e29032e1f0c6E>
     be6:	9811      	ldr	r0, [sp, #68]	@ 0x44
     be8:	9912      	ldr	r1, [sp, #72]	@ 0x48
     bea:	9a13      	ldr	r2, [sp, #76]	@ 0x4c
     bec:	9219      	str	r2, [sp, #100]	@ 0x64
     bee:	9118      	str	r1, [sp, #96]	@ 0x60
     bf0:	9017      	str	r0, [sp, #92]	@ 0x5c
     bf2:	e7ff      	b.n	bf4 <_ZN30microbit_async_display_example7display26LedMatrix$LT$P$C$_$C$_$GT$6render17h38b0b998779ccae4E+0x66>
     bf4:	a817      	add	r0, sp, #92	@ 0x5c
     bf6:	f001 fa07 	bl	2008 <_ZN110_$LT$core..iter..adapters..enumerate..Enumerate$LT$I$GT$$u20$as$u20$core..iter..traits..iterator..Iterator$GT$4next17h8bae91d0affa80cfE>
     bfa:	901a      	str	r0, [sp, #104]	@ 0x68
     bfc:	911b      	str	r1, [sp, #108]	@ 0x6c
     bfe:	981b      	ldr	r0, [sp, #108]	@ 0x6c
     c00:	b168      	cbz	r0, c1e <_ZN30microbit_async_display_example7display26LedMatrix$LT$P$C$_$C$_$GT$6render17h38b0b998779ccae4E+0x90>
     c02:	e7ff      	b.n	c04 <_ZN30microbit_async_display_example7display26LedMatrix$LT$P$C$_$C$_$GT$6render17h38b0b998779ccae4E+0x76>
     c04:	980d      	ldr	r0, [sp, #52]	@ 0x34
     c06:	991a      	ldr	r1, [sp, #104]	@ 0x68
     c08:	911d      	str	r1, [sp, #116]	@ 0x74
     c0a:	9a1b      	ldr	r2, [sp, #108]	@ 0x6c
     c0c:	920a      	str	r2, [sp, #40]	@ 0x28
     c0e:	921e      	str	r2, [sp, #120]	@ 0x78
            if self.frame_buffer.is_set(cid, self.row_p) {
     c10:	6a82      	ldr	r2, [r0, #40]	@ 0x28
     c12:	f002 f802 	bl	2c1a <_ZN30microbit_async_display_example5types18Frame$LT$_$C$_$GT$6is_set17hf08d897d8d086efdE>
     c16:	2800      	cmp	r0, #0
     c18:	f040 8084 	bne.w	d24 <_ZN30microbit_async_display_example7display26LedMatrix$LT$P$C$_$C$_$GT$6render17h38b0b998779ccae4E+0x196>
     c1c:	e07c      	b.n	d18 <_ZN30microbit_async_display_example7display26LedMatrix$LT$P$C$_$C$_$GT$6render17h38b0b998779ccae4E+0x18a>
            }
        }

        // Adjust interval will impact brightness of the LEDs
        block_for(Duration::from_micros(
            ((Brightness::MAX.level() - self.brightness.level()) as u64) * 6000 / Brightness::MAX.level() as u64,
     c1e:	f64b 5047 	movw	r0, #48455	@ 0xbd47
     c22:	f2c0 0000 	movt	r0, #0
     c26:	f7ff fbf4 	bl	412 <_ZN30microbit_async_display_example5types10Brightness5level17hec1be1fa7303eef2E>
     c2a:	4601      	mov	r1, r0
     c2c:	980d      	ldr	r0, [sp, #52]	@ 0x34
     c2e:	9107      	str	r1, [sp, #28]
     c30:	b2c9      	uxtb	r1, r1
     c32:	9108      	str	r1, [sp, #32]
     c34:	3036      	adds	r0, #54	@ 0x36
     c36:	f7ff fbec 	bl	412 <_ZN30microbit_async_display_example5types10Brightness5level17hec1be1fa7303eef2E>
     c3a:	9a07      	ldr	r2, [sp, #28]
     c3c:	4603      	mov	r3, r0
     c3e:	9808      	ldr	r0, [sp, #32]
     c40:	b2d9      	uxtb	r1, r3
     c42:	1ad2      	subs	r2, r2, r3
     c44:	9209      	str	r2, [sp, #36]	@ 0x24
     c46:	4288      	cmp	r0, r1
     c48:	d30b      	bcc.n	c62 <_ZN30microbit_async_display_example7display26LedMatrix$LT$P$C$_$C$_$GT$6render17h38b0b998779ccae4E+0xd4>
     c4a:	e7ff      	b.n	c4c <_ZN30microbit_async_display_example7display26LedMatrix$LT$P$C$_$C$_$GT$6render17h38b0b998779ccae4E+0xbe>
     c4c:	9809      	ldr	r0, [sp, #36]	@ 0x24
     c4e:	b2c0      	uxtb	r0, r0
     c50:	f241 7170 	movw	r1, #6000	@ 0x1770
     c54:	fba0 0101 	umull	r0, r1, r0, r1
     c58:	9105      	str	r1, [sp, #20]
     c5a:	9006      	str	r0, [sp, #24]
     c5c:	2000      	movs	r0, #0
     c5e:	b998      	cbnz	r0, c88 <_ZN30microbit_async_display_example7display26LedMatrix$LT$P$C$_$C$_$GT$6render17h38b0b998779ccae4E+0xfa>
     c60:	e005      	b.n	c6e <_ZN30microbit_async_display_example7display26LedMatrix$LT$P$C$_$C$_$GT$6render17h38b0b998779ccae4E+0xe0>
     c62:	f64b 5058 	movw	r0, #48472	@ 0xbd58
     c66:	f2c0 0000 	movt	r0, #0
     c6a:	f00a fa71 	bl	b150 <_ZN4core9panicking11panic_const24panic_const_sub_overflow17ha4c339b91653944eE>
     c6e:	f64b 5047 	movw	r0, #48455	@ 0xbd47
     c72:	f2c0 0000 	movt	r0, #0
     c76:	f7ff fbcc 	bl	412 <_ZN30microbit_async_display_example5types10Brightness5level17hec1be1fa7303eef2E>
     c7a:	b2c0      	uxtb	r0, r0
     c7c:	2100      	movs	r1, #0
     c7e:	9103      	str	r1, [sp, #12]
     c80:	4601      	mov	r1, r0
     c82:	9104      	str	r1, [sp, #16]
     c84:	b1b0      	cbz	r0, cb4 <_ZN30microbit_async_display_example7display26LedMatrix$LT$P$C$_$C$_$GT$6render17h38b0b998779ccae4E+0x126>
     c86:	e005      	b.n	c94 <_ZN30microbit_async_display_example7display26LedMatrix$LT$P$C$_$C$_$GT$6render17h38b0b998779ccae4E+0x106>
     c88:	f64b 5068 	movw	r0, #48488	@ 0xbd68
     c8c:	f2c0 0000 	movt	r0, #0
     c90:	f00a fa71 	bl	b176 <_ZN4core9panicking11panic_const24panic_const_mul_overflow17h506b9e9ec8555105E>
     c94:	9b03      	ldr	r3, [sp, #12]
     c96:	9a04      	ldr	r2, [sp, #16]
     c98:	9905      	ldr	r1, [sp, #20]
     c9a:	9806      	ldr	r0, [sp, #24]
     c9c:	f00a fd18 	bl	b6d0 <__aeabi_uldivmod>
        block_for(Duration::from_micros(
     ca0:	f005 fded 	bl	687e <_ZN12embassy_time8duration8Duration11from_micros17hfa619c00dc798ed6E>
     ca4:	f005 fda8 	bl	67f8 <_ZN12embassy_time5delay9block_for17hffec92adb099cf68E>
     ca8:	980d      	ldr	r0, [sp, #52]	@ 0x34
        ));

        self.pin_rows[self.row_p].set_high().ok();
     caa:	6a80      	ldr	r0, [r0, #40]	@ 0x28
     cac:	9002      	str	r0, [sp, #8]
     cae:	2805      	cmp	r0, #5
     cb0:	d306      	bcc.n	cc0 <_ZN30microbit_async_display_example7display26LedMatrix$LT$P$C$_$C$_$GT$6render17h38b0b998779ccae4E+0x132>
     cb2:	e014      	b.n	cde <_ZN30microbit_async_display_example7display26LedMatrix$LT$P$C$_$C$_$GT$6render17h38b0b998779ccae4E+0x150>
            ((Brightness::MAX.level() - self.brightness.level()) as u64) * 6000 / Brightness::MAX.level() as u64,
     cb4:	f64b 5068 	movw	r0, #48488	@ 0xbd68
     cb8:	f2c0 0000 	movt	r0, #0
     cbc:	f00a fa94 	bl	b1e8 <_ZN4core9panicking11panic_const23panic_const_div_by_zero17hff1aa7944d63a61dE>
        self.pin_rows[self.row_p].set_high().ok();
     cc0:	980d      	ldr	r0, [sp, #52]	@ 0x34
     cc2:	9902      	ldr	r1, [sp, #8]
     cc4:	4408      	add	r0, r1
     cc6:	302c      	adds	r0, #44	@ 0x2c
     cc8:	f002 fdff 	bl	38ca <_ZN78_$LT$embassy_nrf..gpio..Output$u20$as$u20$embedded_hal..digital..OutputPin$GT$8set_high17hb140d5bce220f12aE>
     ccc:	f002 f85f 	bl	2d8e <_ZN4core6result19Result$LT$T$C$E$GT$2ok17h56b6b61e96f771c7E>

        self.row_p = (self.row_p + 1) % self.pin_rows.len();
     cd0:	980d      	ldr	r0, [sp, #52]	@ 0x34
     cd2:	6a81      	ldr	r1, [r0, #40]	@ 0x28
     cd4:	1c48      	adds	r0, r1, #1
     cd6:	4288      	cmp	r0, r1
     cd8:	9001      	str	r0, [sp, #4]
     cda:	d317      	bcc.n	d0c <_ZN30microbit_async_display_example7display26LedMatrix$LT$P$C$_$C$_$GT$6render17h38b0b998779ccae4E+0x17e>
     cdc:	e007      	b.n	cee <_ZN30microbit_async_display_example7display26LedMatrix$LT$P$C$_$C$_$GT$6render17h38b0b998779ccae4E+0x160>
        self.pin_rows[self.row_p].set_high().ok();
     cde:	9802      	ldr	r0, [sp, #8]
     ce0:	f64b 5278 	movw	r2, #48504	@ 0xbd78
     ce4:	f2c0 0200 	movt	r2, #0
     ce8:	2105      	movs	r1, #5
     cea:	f009 fc05 	bl	a4f8 <_ZN4core9panicking18panic_bounds_check17hbfa4b59d350ae7c0E>
     cee:	990d      	ldr	r1, [sp, #52]	@ 0x34
     cf0:	9801      	ldr	r0, [sp, #4]
     cf2:	f64c 42cd 	movw	r2, #52429	@ 0xcccd
     cf6:	f6cc 42cc 	movt	r2, #52428	@ 0xcccc
        self.row_p = (self.row_p + 1) % self.pin_rows.len();
     cfa:	fba0 3202 	umull	r3, r2, r0, r2
     cfe:	0892      	lsrs	r2, r2, #2
     d00:	eb02 0282 	add.w	r2, r2, r2, lsl #2
     d04:	1a80      	subs	r0, r0, r2
     d06:	6288      	str	r0, [r1, #40]	@ 0x28
    }
     d08:	b020      	add	sp, #128	@ 0x80
     d0a:	bd80      	pop	{r7, pc}
        self.row_p = (self.row_p + 1) % self.pin_rows.len();
     d0c:	f64b 5088 	movw	r0, #48520	@ 0xbd88
     d10:	f2c0 0000 	movt	r0, #0
     d14:	f00a fa09 	bl	b12a <_ZN4core9panicking11panic_const24panic_const_add_overflow17he3ca46f2f2ec3678E>
                col.set_high().ok();
     d18:	980a      	ldr	r0, [sp, #40]	@ 0x28
     d1a:	f002 fdd6 	bl	38ca <_ZN78_$LT$embassy_nrf..gpio..Output$u20$as$u20$embedded_hal..digital..OutputPin$GT$8set_high17hb140d5bce220f12aE>
     d1e:	f002 f836 	bl	2d8e <_ZN4core6result19Result$LT$T$C$E$GT$2ok17h56b6b61e96f771c7E>
     d22:	e767      	b.n	bf4 <_ZN30microbit_async_display_example7display26LedMatrix$LT$P$C$_$C$_$GT$6render17h38b0b998779ccae4E+0x66>
                col.set_low().ok();
     d24:	980a      	ldr	r0, [sp, #40]	@ 0x28
     d26:	f002 fdd8 	bl	38da <_ZN78_$LT$embassy_nrf..gpio..Output$u20$as$u20$embedded_hal..digital..OutputPin$GT$7set_low17h0a9fb674b5f9e687E>
     d2a:	f002 f830 	bl	2d8e <_ZN4core6result19Result$LT$T$C$E$GT$2ok17h56b6b61e96f771c7E>
     d2e:	e761      	b.n	bf4 <_ZN30microbit_async_display_example7display26LedMatrix$LT$P$C$_$C$_$GT$6render17h38b0b998779ccae4E+0x66>

00000d30 <_ZN30microbit_async_display_example7display26LedMatrix$LT$P$C$_$C$_$GT$7display17h2bca18fd9dbaada7E>:

    /// Display the provided frame for the duration. Handles screen refresh
    /// in an async display loop.
    pub async fn display(&mut self, frame: Frame<COLS, ROWS>, length: Duration) {
     d30:	b5f0      	push	{r4, r5, r6, r7, lr}
     d32:	af03      	add	r7, sp, #12
     d34:	f84d 8d04 	str.w	r8, [sp, #-4]!
     d38:	b084      	sub	sp, #16
     d3a:	4694      	mov	ip, r2
     d3c:	460b      	mov	r3, r1
     d3e:	4601      	mov	r1, r0
     d40:	68fa      	ldr	r2, [r7, #12]
     d42:	68b8      	ldr	r0, [r7, #8]
     d44:	9301      	str	r3, [sp, #4]
     d46:	9203      	str	r2, [sp, #12]
     d48:	9002      	str	r0, [sp, #8]
     d4a:	648b      	str	r3, [r1, #72]	@ 0x48
     d4c:	460b      	mov	r3, r1
     d4e:	e8bc 4170 	ldmia.w	ip!, {r4, r5, r6, r8, lr}
     d52:	e8a3 4170 	stmia.w	r3!, {r4, r5, r6, r8, lr}
     d56:	e89c 4170 	ldmia.w	ip, {r4, r5, r6, r8, lr}
     d5a:	e883 4170 	stmia.w	r3, {r4, r5, r6, r8, lr}
     d5e:	62ca      	str	r2, [r1, #44]	@ 0x2c
     d60:	6288      	str	r0, [r1, #40]	@ 0x28
     d62:	2000      	movs	r0, #0
     d64:	f881 0050 	strb.w	r0, [r1, #80]	@ 0x50
        while Instant::now() < end {
            self.render();
            Timer::after(REFRESH_INTERVAL).await;
        }
        self.clear();
    }
     d68:	b004      	add	sp, #16
     d6a:	f85d 8b04 	ldr.w	r8, [sp], #4
     d6e:	bdf0      	pop	{r4, r5, r6, r7, pc}

00000d70 <_ZN30microbit_async_display_example7display26LedMatrix$LT$P$C$_$C$_$GT$7display28_$u7b$$u7b$closure$u7d$$u7d$17he7ca901caa01f5a9E>:
    pub async fn display(&mut self, frame: Frame<COLS, ROWS>, length: Duration) {
     d70:	b5f0      	push	{r4, r5, r6, r7, lr}
     d72:	af03      	add	r7, sp, #12
     d74:	f84d bd04 	str.w	fp, [sp, #-4]!
     d78:	b0ae      	sub	sp, #184	@ 0xb8
     d7a:	9104      	str	r1, [sp, #16]
     d7c:	9006      	str	r0, [sp, #24]
     d7e:	9116      	str	r1, [sp, #88]	@ 0x58
     d80:	9806      	ldr	r0, [sp, #24]
     d82:	f890 0050 	ldrb.w	r0, [r0, #80]	@ 0x50
     d86:	4601      	mov	r1, r0
     d88:	9105      	str	r1, [sp, #20]
     d8a:	b130      	cbz	r0, d9a <_ZN30microbit_async_display_example7display26LedMatrix$LT$P$C$_$C$_$GT$7display28_$u7b$$u7b$closure$u7d$$u7d$17he7ca901caa01f5a9E+0x2a>
     d8c:	e7ff      	b.n	d8e <_ZN30microbit_async_display_example7display26LedMatrix$LT$P$C$_$C$_$GT$7display28_$u7b$$u7b$closure$u7d$$u7d$17he7ca901caa01f5a9E+0x1e>
     d8e:	9805      	ldr	r0, [sp, #20]
     d90:	2801      	cmp	r0, #1
     d92:	d036      	beq.n	e02 <_ZN30microbit_async_display_example7display26LedMatrix$LT$P$C$_$C$_$GT$7display28_$u7b$$u7b$closure$u7d$$u7d$17he7ca901caa01f5a9E+0x92>
     d94:	e7ff      	b.n	d96 <_ZN30microbit_async_display_example7display26LedMatrix$LT$P$C$_$C$_$GT$7display28_$u7b$$u7b$closure$u7d$$u7d$17he7ca901caa01f5a9E+0x26>
     d96:	e038      	b.n	e0a <_ZN30microbit_async_display_example7display26LedMatrix$LT$P$C$_$C$_$GT$7display28_$u7b$$u7b$closure$u7d$$u7d$17he7ca901caa01f5a9E+0x9a>
     d98:	defe      	udf	#254	@ 0xfe
     d9a:	9804      	ldr	r0, [sp, #16]
     d9c:	9015      	str	r0, [sp, #84]	@ 0x54
     d9e:	9906      	ldr	r1, [sp, #24]
     da0:	6c88      	ldr	r0, [r1, #72]	@ 0x48
     da2:	64c8      	str	r0, [r1, #76]	@ 0x4c
     da4:	9906      	ldr	r1, [sp, #24]
     da6:	ab08      	add	r3, sp, #32
     da8:	4618      	mov	r0, r3
     daa:	e8b1 5034 	ldmia.w	r1!, {r2, r4, r5, ip, lr}
     dae:	e8a0 5034 	stmia.w	r0!, {r2, r4, r5, ip, lr}
     db2:	e891 5034 	ldmia.w	r1, {r2, r4, r5, ip, lr}
     db6:	e880 5034 	stmia.w	r0, {r2, r4, r5, ip, lr}
     dba:	9906      	ldr	r1, [sp, #24]
     dbc:	6a88      	ldr	r0, [r1, #40]	@ 0x28
     dbe:	9001      	str	r0, [sp, #4]
     dc0:	6ac9      	ldr	r1, [r1, #44]	@ 0x2c
     dc2:	9102      	str	r1, [sp, #8]
     dc4:	9119      	str	r1, [sp, #100]	@ 0x64
     dc6:	9018      	str	r0, [sp, #96]	@ 0x60
        self.apply(frame);
     dc8:	9806      	ldr	r0, [sp, #24]
     dca:	6cc0      	ldr	r0, [r0, #76]	@ 0x4c
     dcc:	a91a      	add	r1, sp, #104	@ 0x68
     dce:	460a      	mov	r2, r1
     dd0:	e8b3 5070 	ldmia.w	r3!, {r4, r5, r6, ip, lr}
     dd4:	e8a2 5070 	stmia.w	r2!, {r4, r5, r6, ip, lr}
     dd8:	e893 5070 	ldmia.w	r3, {r4, r5, r6, ip, lr}
     ddc:	e882 5070 	stmia.w	r2, {r4, r5, r6, ip, lr}
     de0:	f7ff febd 	bl	b5e <_ZN30microbit_async_display_example7display26LedMatrix$LT$P$C$_$C$_$GT$5apply17ha4d902a50f6e9c9dE>
        let end = Instant::now() + length;
     de4:	f005 fddc 	bl	69a0 <_ZN12embassy_time7instant7Instant3now17hfcd4d5f32b6e690aE>
     de8:	9a01      	ldr	r2, [sp, #4]
     dea:	9b02      	ldr	r3, [sp, #8]
     dec:	f8dd c018 	ldr.w	ip, [sp, #24]
     df0:	f8cd c00c 	str.w	ip, [sp, #12]
     df4:	f005 fe34 	bl	6a60 <_ZN112_$LT$embassy_time..instant..Instant$u20$as$u20$core..ops..arith..Add$LT$embassy_time..duration..Duration$GT$$GT$3add17h1e8ed146d555fbf8E>
     df8:	460a      	mov	r2, r1
     dfa:	9903      	ldr	r1, [sp, #12]
     dfc:	634a      	str	r2, [r1, #52]	@ 0x34
     dfe:	6308      	str	r0, [r1, #48]	@ 0x30
     e00:	e006      	b.n	e10 <_ZN30microbit_async_display_example7display26LedMatrix$LT$P$C$_$C$_$GT$7display28_$u7b$$u7b$closure$u7d$$u7d$17he7ca901caa01f5a9E+0xa0>
     e02:	2000      	movs	r0, #0
    pub async fn display(&mut self, frame: Frame<COLS, ROWS>, length: Duration) {
     e04:	2800      	cmp	r0, #0
     e06:	d1fc      	bne.n	e02 <_ZN30microbit_async_display_example7display26LedMatrix$LT$P$C$_$C$_$GT$7display28_$u7b$$u7b$closure$u7d$$u7d$17he7ca901caa01f5a9E+0x92>
     e08:	e00e      	b.n	e28 <_ZN30microbit_async_display_example7display26LedMatrix$LT$P$C$_$C$_$GT$7display28_$u7b$$u7b$closure$u7d$$u7d$17he7ca901caa01f5a9E+0xb8>
            Timer::after(REFRESH_INTERVAL).await;
     e0a:	9804      	ldr	r0, [sp, #16]
     e0c:	9015      	str	r0, [sp, #84]	@ 0x54
     e0e:	e011      	b.n	e34 <_ZN30microbit_async_display_example7display26LedMatrix$LT$P$C$_$C$_$GT$7display28_$u7b$$u7b$closure$u7d$$u7d$17he7ca901caa01f5a9E+0xc4>
        while Instant::now() < end {
     e10:	f005 fdc6 	bl	69a0 <_ZN12embassy_time7instant7Instant3now17hfcd4d5f32b6e690aE>
     e14:	9113      	str	r1, [sp, #76]	@ 0x4c
     e16:	9012      	str	r0, [sp, #72]	@ 0x48
     e18:	9806      	ldr	r0, [sp, #24]
     e1a:	f100 0130 	add.w	r1, r0, #48	@ 0x30
     e1e:	a812      	add	r0, sp, #72	@ 0x48
     e20:	f005 fba0 	bl	6564 <_ZN4core3cmp10PartialOrd2lt17h4bbb5a114439107eE>
     e24:	bb68      	cbnz	r0, e82 <_ZN30microbit_async_display_example7display26LedMatrix$LT$P$C$_$C$_$GT$7display28_$u7b$$u7b$closure$u7d$$u7d$17he7ca901caa01f5a9E+0x112>
     e26:	e01b      	b.n	e60 <_ZN30microbit_async_display_example7display26LedMatrix$LT$P$C$_$C$_$GT$7display28_$u7b$$u7b$closure$u7d$$u7d$17he7ca901caa01f5a9E+0xf0>
    pub async fn display(&mut self, frame: Frame<COLS, ROWS>, length: Duration) {
     e28:	f64b 5098 	movw	r0, #48536	@ 0xbd98
     e2c:	f2c0 0000 	movt	r0, #0
     e30:	f00a fa00 	bl	b234 <_ZN4core9panicking11panic_const28panic_const_async_fn_resumed17hf08d9c560f63ded1E>
            Timer::after(REFRESH_INTERVAL).await;
     e34:	9806      	ldr	r0, [sp, #24]
     e36:	3038      	adds	r0, #56	@ 0x38
     e38:	902d      	str	r0, [sp, #180]	@ 0xb4
     e3a:	9915      	ldr	r1, [sp, #84]	@ 0x54
     e3c:	f005 fe5c 	bl	6af8 <_ZN75_$LT$embassy_time..timer..Timer$u20$as$u20$core..future..future..Future$GT$4poll17h72b7d707e049386aE>
     e40:	b168      	cbz	r0, e5e <_ZN30microbit_async_display_example7display26LedMatrix$LT$P$C$_$C$_$GT$7display28_$u7b$$u7b$closure$u7d$$u7d$17he7ca901caa01f5a9E+0xee>
     e42:	e7ff      	b.n	e44 <_ZN30microbit_async_display_example7display26LedMatrix$LT$P$C$_$C$_$GT$7display28_$u7b$$u7b$closure$u7d$$u7d$17he7ca901caa01f5a9E+0xd4>
     e44:	2001      	movs	r0, #1
     e46:	f807 0ca9 	strb.w	r0, [r7, #-169]
     e4a:	9906      	ldr	r1, [sp, #24]
     e4c:	2003      	movs	r0, #3
     e4e:	f881 0050 	strb.w	r0, [r1, #80]	@ 0x50
     e52:	f817 0ca9 	ldrb.w	r0, [r7, #-169]
     e56:	b02e      	add	sp, #184	@ 0xb8
     e58:	f85d bb04 	ldr.w	fp, [sp], #4
     e5c:	bdf0      	pop	{r4, r5, r6, r7, pc}
        while Instant::now() < end {
     e5e:	e7d7      	b.n	e10 <_ZN30microbit_async_display_example7display26LedMatrix$LT$P$C$_$C$_$GT$7display28_$u7b$$u7b$closure$u7d$$u7d$17he7ca901caa01f5a9E+0xa0>
        self.clear();
     e60:	9806      	ldr	r0, [sp, #24]
     e62:	6cc0      	ldr	r0, [r0, #76]	@ 0x4c
     e64:	f7ff fe42 	bl	aec <_ZN30microbit_async_display_example7display26LedMatrix$LT$P$C$_$C$_$GT$5clear17hb390533ac5a580c4E>
     e68:	2000      	movs	r0, #0
    }
     e6a:	f807 0ca9 	strb.w	r0, [r7, #-169]
     e6e:	9906      	ldr	r1, [sp, #24]
     e70:	2001      	movs	r0, #1
     e72:	f881 0050 	strb.w	r0, [r1, #80]	@ 0x50
     e76:	f817 0ca9 	ldrb.w	r0, [r7, #-169]
     e7a:	b02e      	add	sp, #184	@ 0xb8
     e7c:	f85d bb04 	ldr.w	fp, [sp], #4
     e80:	bdf0      	pop	{r4, r5, r6, r7, pc}
            self.render();
     e82:	9806      	ldr	r0, [sp, #24]
     e84:	6cc0      	ldr	r0, [r0, #76]	@ 0x4c
     e86:	f7ff fe82 	bl	b8e <_ZN30microbit_async_display_example7display26LedMatrix$LT$P$C$_$C$_$GT$6render17h38b0b998779ccae4E>
     e8a:	a824      	add	r0, sp, #144	@ 0x90
     e8c:	2211      	movs	r2, #17
     e8e:	2300      	movs	r3, #0
            Timer::after(REFRESH_INTERVAL).await;
     e90:	f005 fe1c 	bl	6acc <_ZN12embassy_time5timer5Timer5after17h90fc56a887000710E>
     e94:	9a24      	ldr	r2, [sp, #144]	@ 0x90
     e96:	9b25      	ldr	r3, [sp, #148]	@ 0x94
     e98:	f89d 0098 	ldrb.w	r0, [sp, #152]	@ 0x98
     e9c:	4669      	mov	r1, sp
     e9e:	6008      	str	r0, [r1, #0]
     ea0:	a828      	add	r0, sp, #160	@ 0xa0
     ea2:	f002 fa4c 	bl	333e <_ZN59_$LT$F$u20$as$u20$core..future..into_future..IntoFuture$GT$11into_future17hb4b3c43807099097E>
     ea6:	9a28      	ldr	r2, [sp, #160]	@ 0xa0
     ea8:	9b29      	ldr	r3, [sp, #164]	@ 0xa4
     eaa:	f89d 00a8 	ldrb.w	r0, [sp, #168]	@ 0xa8
     eae:	9906      	ldr	r1, [sp, #24]
     eb0:	63cb      	str	r3, [r1, #60]	@ 0x3c
     eb2:	638a      	str	r2, [r1, #56]	@ 0x38
     eb4:	f881 0040 	strb.w	r0, [r1, #64]	@ 0x40
     eb8:	e7bc      	b.n	e34 <_ZN30microbit_async_display_example7display26LedMatrix$LT$P$C$_$C$_$GT$7display28_$u7b$$u7b$closure$u7d$$u7d$17he7ca901caa01f5a9E+0xc4>

00000eba <_ZN30microbit_async_display_example7display26LedMatrix$LT$P$C$_$C$_$GT$6scroll17hb28bce8910432fa3E>:

    /// Scroll the provided text across the LED display using default duration based on text length
    pub async fn scroll(&mut self, text: &str) {
     eba:	b580      	push	{r7, lr}
     ebc:	466f      	mov	r7, sp
     ebe:	b084      	sub	sp, #16
     ec0:	9100      	str	r1, [sp, #0]
     ec2:	4601      	mov	r1, r0
     ec4:	9800      	ldr	r0, [sp, #0]
     ec6:	9001      	str	r0, [sp, #4]
     ec8:	9202      	str	r2, [sp, #8]
     eca:	9303      	str	r3, [sp, #12]
     ecc:	f8c1 0080 	str.w	r0, [r1, #128]	@ 0x80
     ed0:	600a      	str	r2, [r1, #0]
     ed2:	604b      	str	r3, [r1, #4]
     ed4:	2000      	movs	r0, #0
     ed6:	f881 0084 	strb.w	r0, [r1, #132]	@ 0x84
        self.scroll_with_speed(text, Duration::from_secs((text.len() / 2) as u64))
            .await;
    }
     eda:	b004      	add	sp, #16
     edc:	bd80      	pop	{r7, pc}

00000ede <_ZN30microbit_async_display_example7display26LedMatrix$LT$P$C$_$C$_$GT$6scroll28_$u7b$$u7b$closure$u7d$$u7d$17h10d4be5fd8465005E>:
    pub async fn scroll(&mut self, text: &str) {
     ede:	b580      	push	{r7, lr}
     ee0:	466f      	mov	r7, sp
     ee2:	b0d0      	sub	sp, #320	@ 0x140
     ee4:	9108      	str	r1, [sp, #32]
     ee6:	900a      	str	r0, [sp, #40]	@ 0x28
     ee8:	914a      	str	r1, [sp, #296]	@ 0x128
     eea:	980a      	ldr	r0, [sp, #40]	@ 0x28
     eec:	f890 0084 	ldrb.w	r0, [r0, #132]	@ 0x84
     ef0:	4601      	mov	r1, r0
     ef2:	9109      	str	r1, [sp, #36]	@ 0x24
     ef4:	b130      	cbz	r0, f04 <_ZN30microbit_async_display_example7display26LedMatrix$LT$P$C$_$C$_$GT$6scroll28_$u7b$$u7b$closure$u7d$$u7d$17h10d4be5fd8465005E+0x26>
     ef6:	e7ff      	b.n	ef8 <_ZN30microbit_async_display_example7display26LedMatrix$LT$P$C$_$C$_$GT$6scroll28_$u7b$$u7b$closure$u7d$$u7d$17h10d4be5fd8465005E+0x1a>
     ef8:	9809      	ldr	r0, [sp, #36]	@ 0x24
     efa:	2801      	cmp	r0, #1
     efc:	d02f      	beq.n	f5e <_ZN30microbit_async_display_example7display26LedMatrix$LT$P$C$_$C$_$GT$6scroll28_$u7b$$u7b$closure$u7d$$u7d$17h10d4be5fd8465005E+0x80>
     efe:	e7ff      	b.n	f00 <_ZN30microbit_async_display_example7display26LedMatrix$LT$P$C$_$C$_$GT$6scroll28_$u7b$$u7b$closure$u7d$$u7d$17h10d4be5fd8465005E+0x22>
     f00:	e031      	b.n	f66 <_ZN30microbit_async_display_example7display26LedMatrix$LT$P$C$_$C$_$GT$6scroll28_$u7b$$u7b$closure$u7d$$u7d$17h10d4be5fd8465005E+0x88>
     f02:	defe      	udf	#254	@ 0xfe
     f04:	9808      	ldr	r0, [sp, #32]
     f06:	9049      	str	r0, [sp, #292]	@ 0x124
     f08:	980a      	ldr	r0, [sp, #40]	@ 0x28
     f0a:	f8d0 0080 	ldr.w	r0, [r0, #128]	@ 0x80
     f0e:	9005      	str	r0, [sp, #20]
     f10:	904c      	str	r0, [sp, #304]	@ 0x130
     f12:	990a      	ldr	r1, [sp, #40]	@ 0x28
     f14:	6808      	ldr	r0, [r1, #0]
     f16:	9003      	str	r0, [sp, #12]
     f18:	6849      	ldr	r1, [r1, #4]
     f1a:	9104      	str	r1, [sp, #16]
     f1c:	904d      	str	r0, [sp, #308]	@ 0x134
     f1e:	914e      	str	r1, [sp, #312]	@ 0x138
        self.scroll_with_speed(text, Duration::from_secs((text.len() / 2) as u64))
     f20:	f000 fbb5 	bl	168e <_ZN4core3str21_$LT$impl$u20$str$GT$3len17ha6e9c427a1f032a9E>
     f24:	0840      	lsrs	r0, r0, #1
     f26:	2100      	movs	r1, #0
     f28:	f005 fc83 	bl	6832 <_ZN12embassy_time8duration8Duration9from_secs17h0d65bcb0ec475bedE>
     f2c:	9a03      	ldr	r2, [sp, #12]
     f2e:	9b04      	ldr	r3, [sp, #16]
     f30:	468e      	mov	lr, r1
     f32:	9905      	ldr	r1, [sp, #20]
     f34:	46ec      	mov	ip, sp
     f36:	f8cc e004 	str.w	lr, [ip, #4]
     f3a:	f8cc 0000 	str.w	r0, [ip]
     f3e:	a82a      	add	r0, sp, #168	@ 0xa8
     f40:	9006      	str	r0, [sp, #24]
     f42:	f000 f83b 	bl	fbc <_ZN30microbit_async_display_example7display26LedMatrix$LT$P$C$_$C$_$GT$17scroll_with_speed17hda38a3c09c0ac63dE>
     f46:	9906      	ldr	r1, [sp, #24]
     f48:	a80c      	add	r0, sp, #48	@ 0x30
            .await;
     f4a:	9007      	str	r0, [sp, #28]
     f4c:	f7ff fd95 	bl	a7a <_ZN59_$LT$F$u20$as$u20$core..future..into_future..IntoFuture$GT$11into_future17hdcc650a88c2ece8cE>
     f50:	9907      	ldr	r1, [sp, #28]
        self.scroll_with_speed(text, Duration::from_secs((text.len() / 2) as u64))
     f52:	980a      	ldr	r0, [sp, #40]	@ 0x28
     f54:	3008      	adds	r0, #8
     f56:	2278      	movs	r2, #120	@ 0x78
     f58:	f00a fb6f 	bl	b63a <__aeabi_memcpy8>
            .await;
     f5c:	e006      	b.n	f6c <_ZN30microbit_async_display_example7display26LedMatrix$LT$P$C$_$C$_$GT$6scroll28_$u7b$$u7b$closure$u7d$$u7d$17h10d4be5fd8465005E+0x8e>
     f5e:	2000      	movs	r0, #0
    pub async fn scroll(&mut self, text: &str) {
     f60:	2800      	cmp	r0, #0
     f62:	d1fc      	bne.n	f5e <_ZN30microbit_async_display_example7display26LedMatrix$LT$P$C$_$C$_$GT$6scroll28_$u7b$$u7b$closure$u7d$$u7d$17h10d4be5fd8465005E+0x80>
     f64:	e00a      	b.n	f7c <_ZN30microbit_async_display_example7display26LedMatrix$LT$P$C$_$C$_$GT$6scroll28_$u7b$$u7b$closure$u7d$$u7d$17h10d4be5fd8465005E+0x9e>
            .await;
     f66:	9808      	ldr	r0, [sp, #32]
     f68:	9049      	str	r0, [sp, #292]	@ 0x124
     f6a:	e7ff      	b.n	f6c <_ZN30microbit_async_display_example7display26LedMatrix$LT$P$C$_$C$_$GT$6scroll28_$u7b$$u7b$closure$u7d$$u7d$17h10d4be5fd8465005E+0x8e>
     f6c:	980a      	ldr	r0, [sp, #40]	@ 0x28
     f6e:	3008      	adds	r0, #8
     f70:	904f      	str	r0, [sp, #316]	@ 0x13c
     f72:	9949      	ldr	r1, [sp, #292]	@ 0x124
     f74:	f000 f83d 	bl	ff2 <_ZN30microbit_async_display_example7display26LedMatrix$LT$P$C$_$C$_$GT$17scroll_with_speed28_$u7b$$u7b$closure$u7d$$u7d$17h9ecf84d48999b150E>
     f78:	b930      	cbnz	r0, f88 <_ZN30microbit_async_display_example7display26LedMatrix$LT$P$C$_$C$_$GT$6scroll28_$u7b$$u7b$closure$u7d$$u7d$17h10d4be5fd8465005E+0xaa>
     f7a:	e010      	b.n	f9e <_ZN30microbit_async_display_example7display26LedMatrix$LT$P$C$_$C$_$GT$6scroll28_$u7b$$u7b$closure$u7d$$u7d$17h10d4be5fd8465005E+0xc0>
    pub async fn scroll(&mut self, text: &str) {
     f7c:	f64b 50a8 	movw	r0, #48552	@ 0xbda8
     f80:	f2c0 0000 	movt	r0, #0
     f84:	f00a f956 	bl	b234 <_ZN4core9panicking11panic_const28panic_const_async_fn_resumed17hf08d9c560f63ded1E>
     f88:	2001      	movs	r0, #1
            .await;
     f8a:	f88d 002f 	strb.w	r0, [sp, #47]	@ 0x2f
     f8e:	990a      	ldr	r1, [sp, #40]	@ 0x28
     f90:	2003      	movs	r0, #3
     f92:	f881 0084 	strb.w	r0, [r1, #132]	@ 0x84
     f96:	f89d 002f 	ldrb.w	r0, [sp, #47]	@ 0x2f
     f9a:	b050      	add	sp, #320	@ 0x140
     f9c:	bd80      	pop	{r7, pc}
     f9e:	980a      	ldr	r0, [sp, #40]	@ 0x28
     fa0:	3008      	adds	r0, #8
     fa2:	f001 fbef 	bl	2784 <_ZN4core3ptr172drop_in_place$LT$microbit_async_display_example..display..LedMatrix$LT$embassy_nrf..gpio..Output$C$5_usize$C$5_usize$GT$..scroll_with_speed..$u7b$$u7b$closure$u7d$$u7d$$GT$17h16dab7023a742d18E>
     fa6:	2000      	movs	r0, #0
    }
     fa8:	f88d 002f 	strb.w	r0, [sp, #47]	@ 0x2f
     fac:	990a      	ldr	r1, [sp, #40]	@ 0x28
     fae:	2001      	movs	r0, #1
     fb0:	f881 0084 	strb.w	r0, [r1, #132]	@ 0x84
     fb4:	f89d 002f 	ldrb.w	r0, [sp, #47]	@ 0x2f
     fb8:	b050      	add	sp, #320	@ 0x140
     fba:	bd80      	pop	{r7, pc}

00000fbc <_ZN30microbit_async_display_example7display26LedMatrix$LT$P$C$_$C$_$GT$17scroll_with_speed17hda38a3c09c0ac63dE>:

    /// Scroll the provided text across the screen within the provided duration
    pub async fn scroll_with_speed(&mut self, text: &str, speed: Duration) {
     fbc:	b580      	push	{r7, lr}
     fbe:	466f      	mov	r7, sp
     fc0:	b086      	sub	sp, #24
     fc2:	4694      	mov	ip, r2
     fc4:	468e      	mov	lr, r1
     fc6:	4601      	mov	r1, r0
     fc8:	68fa      	ldr	r2, [r7, #12]
     fca:	68b8      	ldr	r0, [r7, #8]
     fcc:	f8cd e004 	str.w	lr, [sp, #4]
     fd0:	f8cd c008 	str.w	ip, [sp, #8]
     fd4:	9303      	str	r3, [sp, #12]
     fd6:	9205      	str	r2, [sp, #20]
     fd8:	9004      	str	r0, [sp, #16]
     fda:	f8c1 e070 	str.w	lr, [r1, #112]	@ 0x70
     fde:	f8c1 c000 	str.w	ip, [r1]
     fe2:	604b      	str	r3, [r1, #4]
     fe4:	60ca      	str	r2, [r1, #12]
     fe6:	6088      	str	r0, [r1, #8]
     fe8:	2000      	movs	r0, #0
     fea:	f881 0074 	strb.w	r0, [r1, #116]	@ 0x74
        self.animate(text.as_bytes(), AnimationEffect::Slide, speed).await;
    }
     fee:	b006      	add	sp, #24
     ff0:	bd80      	pop	{r7, pc}

00000ff2 <_ZN30microbit_async_display_example7display26LedMatrix$LT$P$C$_$C$_$GT$17scroll_with_speed28_$u7b$$u7b$closure$u7d$$u7d$17h9ecf84d48999b150E>:
    pub async fn scroll_with_speed(&mut self, text: &str, speed: Duration) {
     ff2:	b5d0      	push	{r4, r6, r7, lr}
     ff4:	af02      	add	r7, sp, #8
     ff6:	b0c8      	sub	sp, #288	@ 0x120
     ff8:	9106      	str	r1, [sp, #24]
     ffa:	9008      	str	r0, [sp, #32]
     ffc:	913d      	str	r1, [sp, #244]	@ 0xf4
     ffe:	9808      	ldr	r0, [sp, #32]
    1000:	f890 0074 	ldrb.w	r0, [r0, #116]	@ 0x74
    1004:	4601      	mov	r1, r0
    1006:	9107      	str	r1, [sp, #28]
    1008:	b130      	cbz	r0, 1018 <_ZN30microbit_async_display_example7display26LedMatrix$LT$P$C$_$C$_$GT$17scroll_with_speed28_$u7b$$u7b$closure$u7d$$u7d$17h9ecf84d48999b150E+0x26>
    100a:	e7ff      	b.n	100c <_ZN30microbit_async_display_example7display26LedMatrix$LT$P$C$_$C$_$GT$17scroll_with_speed28_$u7b$$u7b$closure$u7d$$u7d$17h9ecf84d48999b150E+0x1a>
    100c:	9807      	ldr	r0, [sp, #28]
    100e:	2801      	cmp	r0, #1
    1010:	d031      	beq.n	1076 <_ZN30microbit_async_display_example7display26LedMatrix$LT$P$C$_$C$_$GT$17scroll_with_speed28_$u7b$$u7b$closure$u7d$$u7d$17h9ecf84d48999b150E+0x84>
    1012:	e7ff      	b.n	1014 <_ZN30microbit_async_display_example7display26LedMatrix$LT$P$C$_$C$_$GT$17scroll_with_speed28_$u7b$$u7b$closure$u7d$$u7d$17h9ecf84d48999b150E+0x22>
    1014:	e033      	b.n	107e <_ZN30microbit_async_display_example7display26LedMatrix$LT$P$C$_$C$_$GT$17scroll_with_speed28_$u7b$$u7b$closure$u7d$$u7d$17h9ecf84d48999b150E+0x8c>
    1016:	defe      	udf	#254	@ 0xfe
    1018:	9806      	ldr	r0, [sp, #24]
    101a:	903c      	str	r0, [sp, #240]	@ 0xf0
    101c:	9808      	ldr	r0, [sp, #32]
    101e:	6f01      	ldr	r1, [r0, #112]	@ 0x70
    1020:	913f      	str	r1, [sp, #252]	@ 0xfc
    1022:	9808      	ldr	r0, [sp, #32]
    1024:	6802      	ldr	r2, [r0, #0]
    1026:	6843      	ldr	r3, [r0, #4]
    1028:	9240      	str	r2, [sp, #256]	@ 0x100
    102a:	9341      	str	r3, [sp, #260]	@ 0x104
    102c:	9808      	ldr	r0, [sp, #32]
    102e:	f8d0 e008 	ldr.w	lr, [r0, #8]
    1032:	68c4      	ldr	r4, [r0, #12]
    1034:	9443      	str	r4, [sp, #268]	@ 0x10c
    1036:	f8cd e108 	str.w	lr, [sp, #264]	@ 0x108
    103a:	9246      	str	r2, [sp, #280]	@ 0x118
    103c:	9347      	str	r3, [sp, #284]	@ 0x11c
    103e:	2001      	movs	r0, #1
        self.animate(text.as_bytes(), AnimationEffect::Slide, speed).await;
    1040:	f807 0c39 	strb.w	r0, [r7, #-57]
    1044:	f817 0c39 	ldrb.w	r0, [r7, #-57]
    1048:	46ec      	mov	ip, sp
    104a:	f8cc 400c 	str.w	r4, [ip, #12]
    104e:	f8cc e008 	str.w	lr, [ip, #8]
    1052:	f8cc 0000 	str.w	r0, [ip]
    1056:	a822      	add	r0, sp, #136	@ 0x88
    1058:	9004      	str	r0, [sp, #16]
    105a:	f000 f83b 	bl	10d4 <_ZN30microbit_async_display_example7display26LedMatrix$LT$P$C$_$C$_$GT$7animate17hfb5f31c83fb16f0fE>
    105e:	9904      	ldr	r1, [sp, #16]
    1060:	a80a      	add	r0, sp, #40	@ 0x28
    1062:	9005      	str	r0, [sp, #20]
    1064:	f7ff fcf7 	bl	a56 <_ZN59_$LT$F$u20$as$u20$core..future..into_future..IntoFuture$GT$11into_future17h084bf453f79ba1fbE>
    1068:	9905      	ldr	r1, [sp, #20]
    106a:	9808      	ldr	r0, [sp, #32]
    106c:	3010      	adds	r0, #16
    106e:	2260      	movs	r2, #96	@ 0x60
    1070:	f00a fae3 	bl	b63a <__aeabi_memcpy8>
    1074:	e006      	b.n	1084 <_ZN30microbit_async_display_example7display26LedMatrix$LT$P$C$_$C$_$GT$17scroll_with_speed28_$u7b$$u7b$closure$u7d$$u7d$17h9ecf84d48999b150E+0x92>
    1076:	2000      	movs	r0, #0
    pub async fn scroll_with_speed(&mut self, text: &str, speed: Duration) {
    1078:	2800      	cmp	r0, #0
    107a:	d1fc      	bne.n	1076 <_ZN30microbit_async_display_example7display26LedMatrix$LT$P$C$_$C$_$GT$17scroll_with_speed28_$u7b$$u7b$closure$u7d$$u7d$17h9ecf84d48999b150E+0x84>
    107c:	e00a      	b.n	1094 <_ZN30microbit_async_display_example7display26LedMatrix$LT$P$C$_$C$_$GT$17scroll_with_speed28_$u7b$$u7b$closure$u7d$$u7d$17h9ecf84d48999b150E+0xa2>
        self.animate(text.as_bytes(), AnimationEffect::Slide, speed).await;
    107e:	9806      	ldr	r0, [sp, #24]
    1080:	903c      	str	r0, [sp, #240]	@ 0xf0
    1082:	e7ff      	b.n	1084 <_ZN30microbit_async_display_example7display26LedMatrix$LT$P$C$_$C$_$GT$17scroll_with_speed28_$u7b$$u7b$closure$u7d$$u7d$17h9ecf84d48999b150E+0x92>
    1084:	9808      	ldr	r0, [sp, #32]
    1086:	3010      	adds	r0, #16
    1088:	9045      	str	r0, [sp, #276]	@ 0x114
    108a:	993c      	ldr	r1, [sp, #240]	@ 0xf0
    108c:	f000 f843 	bl	1116 <_ZN30microbit_async_display_example7display26LedMatrix$LT$P$C$_$C$_$GT$7animate28_$u7b$$u7b$closure$u7d$$u7d$17hb06aa3ac67ad1877E>
    1090:	b930      	cbnz	r0, 10a0 <_ZN30microbit_async_display_example7display26LedMatrix$LT$P$C$_$C$_$GT$17scroll_with_speed28_$u7b$$u7b$closure$u7d$$u7d$17h9ecf84d48999b150E+0xae>
    1092:	e010      	b.n	10b6 <_ZN30microbit_async_display_example7display26LedMatrix$LT$P$C$_$C$_$GT$17scroll_with_speed28_$u7b$$u7b$closure$u7d$$u7d$17h9ecf84d48999b150E+0xc4>
    pub async fn scroll_with_speed(&mut self, text: &str, speed: Duration) {
    1094:	f64b 50b8 	movw	r0, #48568	@ 0xbdb8
    1098:	f2c0 0000 	movt	r0, #0
    109c:	f00a f8ca 	bl	b234 <_ZN4core9panicking11panic_const28panic_const_async_fn_resumed17hf08d9c560f63ded1E>
    10a0:	2001      	movs	r0, #1
        self.animate(text.as_bytes(), AnimationEffect::Slide, speed).await;
    10a2:	f88d 0027 	strb.w	r0, [sp, #39]	@ 0x27
    10a6:	9908      	ldr	r1, [sp, #32]
    10a8:	2003      	movs	r0, #3
    10aa:	f881 0074 	strb.w	r0, [r1, #116]	@ 0x74
    10ae:	f89d 0027 	ldrb.w	r0, [sp, #39]	@ 0x27
    10b2:	b048      	add	sp, #288	@ 0x120
    10b4:	bdd0      	pop	{r4, r6, r7, pc}
    10b6:	9808      	ldr	r0, [sp, #32]
    10b8:	3010      	adds	r0, #16
    10ba:	f001 fb3b 	bl	2734 <_ZN4core3ptr162drop_in_place$LT$microbit_async_display_example..display..LedMatrix$LT$embassy_nrf..gpio..Output$C$5_usize$C$5_usize$GT$..animate..$u7b$$u7b$closure$u7d$$u7d$$GT$17h4f3b2f4d8ed6f4fbE>
    10be:	2000      	movs	r0, #0
    }
    10c0:	f88d 0027 	strb.w	r0, [sp, #39]	@ 0x27
    10c4:	9908      	ldr	r1, [sp, #32]
    10c6:	2001      	movs	r0, #1
    10c8:	f881 0074 	strb.w	r0, [r1, #116]	@ 0x74
    10cc:	f89d 0027 	ldrb.w	r0, [sp, #39]	@ 0x27
    10d0:	b048      	add	sp, #288	@ 0x120
    10d2:	bdd0      	pop	{r4, r6, r7, pc}

000010d4 <_ZN30microbit_async_display_example7display26LedMatrix$LT$P$C$_$C$_$GT$7animate17hfb5f31c83fb16f0fE>:

    /// Apply animation based on data with the given effect during the provided duration
    pub async fn animate(&mut self, data: &[u8], effect: AnimationEffect, duration: Duration) {
    10d4:	b5d0      	push	{r4, r6, r7, lr}
    10d6:	af02      	add	r7, sp, #8
    10d8:	b086      	sub	sp, #24
    10da:	469c      	mov	ip, r3
    10dc:	4696      	mov	lr, r2
    10de:	460c      	mov	r4, r1
    10e0:	4601      	mov	r1, r0
    10e2:	697a      	ldr	r2, [r7, #20]
    10e4:	6938      	ldr	r0, [r7, #16]
    10e6:	68bb      	ldr	r3, [r7, #8]
    10e8:	9400      	str	r4, [sp, #0]
    10ea:	f8cd e004 	str.w	lr, [sp, #4]
    10ee:	f8cd c008 	str.w	ip, [sp, #8]
    10f2:	f807 3c11 	strb.w	r3, [r7, #-17]
    10f6:	9205      	str	r2, [sp, #20]
    10f8:	9004      	str	r0, [sp, #16]
    10fa:	654c      	str	r4, [r1, #84]	@ 0x54
    10fc:	f8c1 e048 	str.w	lr, [r1, #72]	@ 0x48
    1100:	f8c1 c04c 	str.w	ip, [r1, #76]	@ 0x4c
    1104:	f881 3059 	strb.w	r3, [r1, #89]	@ 0x59
    1108:	644a      	str	r2, [r1, #68]	@ 0x44
    110a:	6408      	str	r0, [r1, #64]	@ 0x40
    110c:	2000      	movs	r0, #0
    110e:	f881 0058 	strb.w	r0, [r1, #88]	@ 0x58
            }
            self.render();
            Timer::after(REFRESH_INTERVAL).await;
        }
        self.clear();
    }
    1112:	b006      	add	sp, #24
    1114:	bdd0      	pop	{r4, r6, r7, pc}

00001116 <_ZN30microbit_async_display_example7display26LedMatrix$LT$P$C$_$C$_$GT$7animate28_$u7b$$u7b$closure$u7d$$u7d$17hb06aa3ac67ad1877E>:
    pub async fn animate(&mut self, data: &[u8], effect: AnimationEffect, duration: Duration) {
    1116:	b5f0      	push	{r4, r5, r6, r7, lr}
    1118:	af03      	add	r7, sp, #12
    111a:	f84d bd04 	str.w	fp, [sp, #-4]!
    111e:	b0ca      	sub	sp, #296	@ 0x128
    1120:	9106      	str	r1, [sp, #24]
    1122:	9008      	str	r0, [sp, #32]
    1124:	912f      	str	r1, [sp, #188]	@ 0xbc
    1126:	9808      	ldr	r0, [sp, #32]
    1128:	f890 0058 	ldrb.w	r0, [r0, #88]	@ 0x58
    112c:	4601      	mov	r1, r0
    112e:	9107      	str	r1, [sp, #28]
    1130:	b130      	cbz	r0, 1140 <_ZN30microbit_async_display_example7display26LedMatrix$LT$P$C$_$C$_$GT$7animate28_$u7b$$u7b$closure$u7d$$u7d$17hb06aa3ac67ad1877E+0x2a>
    1132:	e7ff      	b.n	1134 <_ZN30microbit_async_display_example7display26LedMatrix$LT$P$C$_$C$_$GT$7animate28_$u7b$$u7b$closure$u7d$$u7d$17hb06aa3ac67ad1877E+0x1e>
    1134:	9807      	ldr	r0, [sp, #28]
    1136:	2801      	cmp	r0, #1
    1138:	d048      	beq.n	11cc <_ZN30microbit_async_display_example7display26LedMatrix$LT$P$C$_$C$_$GT$7animate28_$u7b$$u7b$closure$u7d$$u7d$17hb06aa3ac67ad1877E+0xb6>
    113a:	e7ff      	b.n	113c <_ZN30microbit_async_display_example7display26LedMatrix$LT$P$C$_$C$_$GT$7animate28_$u7b$$u7b$closure$u7d$$u7d$17hb06aa3ac67ad1877E+0x26>
    113c:	e04a      	b.n	11d4 <_ZN30microbit_async_display_example7display26LedMatrix$LT$P$C$_$C$_$GT$7animate28_$u7b$$u7b$closure$u7d$$u7d$17hb06aa3ac67ad1877E+0xbe>
    113e:	defe      	udf	#254	@ 0xfe
    1140:	9806      	ldr	r0, [sp, #24]
    1142:	902e      	str	r0, [sp, #184]	@ 0xb8
    1144:	9908      	ldr	r1, [sp, #32]
    1146:	6d48      	ldr	r0, [r1, #84]	@ 0x54
    1148:	6508      	str	r0, [r1, #80]	@ 0x50
    114a:	9808      	ldr	r0, [sp, #32]
    114c:	f8d0 c048 	ldr.w	ip, [r0, #72]	@ 0x48
    1150:	6cc1      	ldr	r1, [r0, #76]	@ 0x4c
    1152:	f8cd c0c4 	str.w	ip, [sp, #196]	@ 0xc4
    1156:	9132      	str	r1, [sp, #200]	@ 0xc8
    1158:	9808      	ldr	r0, [sp, #32]
    115a:	f890 2059 	ldrb.w	r2, [r0, #89]	@ 0x59
    115e:	f807 2c69 	strb.w	r2, [r7, #-105]
    1162:	9b08      	ldr	r3, [sp, #32]
    1164:	6c18      	ldr	r0, [r3, #64]	@ 0x40
    1166:	6c5b      	ldr	r3, [r3, #68]	@ 0x44
    1168:	9335      	str	r3, [sp, #212]	@ 0xd4
    116a:	9034      	str	r0, [sp, #208]	@ 0xd0
            Animation::new(AnimationData::Bytes(data), effect, duration).unwrap();
    116c:	f8cd c05c 	str.w	ip, [sp, #92]	@ 0x5c
    1170:	9118      	str	r1, [sp, #96]	@ 0x60
    1172:	2101      	movs	r1, #1
    1174:	9116      	str	r1, [sp, #88]	@ 0x58
    1176:	4669      	mov	r1, sp
    1178:	604b      	str	r3, [r1, #4]
    117a:	6008      	str	r0, [r1, #0]
    117c:	a80a      	add	r0, sp, #40	@ 0x28
    117e:	a916      	add	r1, sp, #88	@ 0x58
    1180:	f000 f907 	bl	1392 <_ZN30microbit_async_display_example7display22Animation$LT$_$C$_$GT$3new17hc349e1509ac35d71E>
    1184:	9808      	ldr	r0, [sp, #32]
    pub fn unwrap(self) -> T
    where
        E: fmt::Debug,
    {
        match self {
            Ok(t) => t,
    1186:	9005      	str	r0, [sp, #20]
        match self {
    1188:	9812      	ldr	r0, [sp, #72]	@ 0x48
    118a:	2802      	cmp	r0, #2
    118c:	d113      	bne.n	11b6 <_ZN30microbit_async_display_example7display26LedMatrix$LT$P$C$_$C$_$GT$7animate28_$u7b$$u7b$closure$u7d$$u7d$17hb06aa3ac67ad1877E+0xa0>
    118e:	e7ff      	b.n	1190 <_ZN30microbit_async_display_example7display26LedMatrix$LT$P$C$_$C$_$GT$7animate28_$u7b$$u7b$closure$u7d$$u7d$17hb06aa3ac67ad1877E+0x7a>
            Err(e) => unwrap_failed("called `Result::unwrap()` on an `Err` value", &e),
    1190:	f64b 50c8 	movw	r0, #48584	@ 0xbdc8
    1194:	f2c0 0000 	movt	r0, #0
    1198:	4669      	mov	r1, sp
    119a:	6008      	str	r0, [r1, #0]
    119c:	f64b 501c 	movw	r0, #48412	@ 0xbd1c
    11a0:	f2c0 0000 	movt	r0, #0
    11a4:	f64b 530c 	movw	r3, #48396	@ 0xbd0c
    11a8:	f2c0 0300 	movt	r3, #0
    11ac:	212b      	movs	r1, #43	@ 0x2b
    11ae:	f1a7 0211 	sub.w	r2, r7, #17
    11b2:	f009 f9bf 	bl	a534 <_ZN4core6result13unwrap_failed17h5f8fbd930397df6cE>
    11b6:	9805      	ldr	r0, [sp, #20]
    11b8:	a90a      	add	r1, sp, #40	@ 0x28
            Ok(t) => t,
    11ba:	e8b1 503c 	ldmia.w	r1!, {r2, r3, r4, r5, ip, lr}
    11be:	e8a0 503c 	stmia.w	r0!, {r2, r3, r4, r5, ip, lr}
    11c2:	e891 503c 	ldmia.w	r1, {r2, r3, r4, r5, ip, lr}
    11c6:	e880 503c 	stmia.w	r0, {r2, r3, r4, r5, ip, lr}
    11ca:	e006      	b.n	11da <_ZN30microbit_async_display_example7display26LedMatrix$LT$P$C$_$C$_$GT$7animate28_$u7b$$u7b$closure$u7d$$u7d$17hb06aa3ac67ad1877E+0xc4>
    11cc:	2000      	movs	r0, #0
    pub async fn animate(&mut self, data: &[u8], effect: AnimationEffect, duration: Duration) {
    11ce:	2800      	cmp	r0, #0
    11d0:	d1fc      	bne.n	11cc <_ZN30microbit_async_display_example7display26LedMatrix$LT$P$C$_$C$_$GT$7animate28_$u7b$$u7b$closure$u7d$$u7d$17hb06aa3ac67ad1877E+0xb6>
    11d2:	e015      	b.n	1200 <_ZN30microbit_async_display_example7display26LedMatrix$LT$P$C$_$C$_$GT$7animate28_$u7b$$u7b$closure$u7d$$u7d$17hb06aa3ac67ad1877E+0xea>
            Timer::after(REFRESH_INTERVAL).await;
    11d4:	9806      	ldr	r0, [sp, #24]
    11d6:	902e      	str	r0, [sp, #184]	@ 0xb8
    11d8:	e018      	b.n	120c <_ZN30microbit_async_display_example7display26LedMatrix$LT$P$C$_$C$_$GT$7animate28_$u7b$$u7b$closure$u7d$$u7d$17hb06aa3ac67ad1877E+0xf6>
            match animation.next(Instant::now()) {
    11da:	9808      	ldr	r0, [sp, #32]
    11dc:	9003      	str	r0, [sp, #12]
    11de:	f005 fbdf 	bl	69a0 <_ZN12embassy_time7instant7Instant3now17hfcd4d5f32b6e690aE>
    11e2:	4602      	mov	r2, r0
    11e4:	460b      	mov	r3, r1
    11e6:	9903      	ldr	r1, [sp, #12]
    11e8:	a819      	add	r0, sp, #100	@ 0x64
    11ea:	f000 f9c3 	bl	1574 <_ZN30microbit_async_display_example7display22Animation$LT$_$C$_$GT$4next17ha1934380e637d722E>
    11ee:	9819      	ldr	r0, [sp, #100]	@ 0x64
    11f0:	9004      	str	r0, [sp, #16]
    11f2:	b308      	cbz	r0, 1238 <_ZN30microbit_async_display_example7display26LedMatrix$LT$P$C$_$C$_$GT$7animate28_$u7b$$u7b$closure$u7d$$u7d$17hb06aa3ac67ad1877E+0x122>
    11f4:	e7ff      	b.n	11f6 <_ZN30microbit_async_display_example7display26LedMatrix$LT$P$C$_$C$_$GT$7animate28_$u7b$$u7b$closure$u7d$$u7d$17hb06aa3ac67ad1877E+0xe0>
    11f6:	9804      	ldr	r0, [sp, #16]
    11f8:	2801      	cmp	r0, #1
    11fa:	d039      	beq.n	1270 <_ZN30microbit_async_display_example7display26LedMatrix$LT$P$C$_$C$_$GT$7animate28_$u7b$$u7b$closure$u7d$$u7d$17hb06aa3ac67ad1877E+0x15a>
    11fc:	e7ff      	b.n	11fe <_ZN30microbit_async_display_example7display26LedMatrix$LT$P$C$_$C$_$GT$7animate28_$u7b$$u7b$closure$u7d$$u7d$17hb06aa3ac67ad1877E+0xe8>
    11fe:	e052      	b.n	12a6 <_ZN30microbit_async_display_example7display26LedMatrix$LT$P$C$_$C$_$GT$7animate28_$u7b$$u7b$closure$u7d$$u7d$17hb06aa3ac67ad1877E+0x190>
    pub async fn animate(&mut self, data: &[u8], effect: AnimationEffect, duration: Duration) {
    1200:	f64b 50d8 	movw	r0, #48600	@ 0xbdd8
    1204:	f2c0 0000 	movt	r0, #0
    1208:	f00a f814 	bl	b234 <_ZN4core9panicking11panic_const28panic_const_async_fn_resumed17hf08d9c560f63ded1E>
            Timer::after(REFRESH_INTERVAL).await;
    120c:	9808      	ldr	r0, [sp, #32]
    120e:	3030      	adds	r0, #48	@ 0x30
    1210:	9048      	str	r0, [sp, #288]	@ 0x120
    1212:	992e      	ldr	r1, [sp, #184]	@ 0xb8
    1214:	f005 fc70 	bl	6af8 <_ZN75_$LT$embassy_time..timer..Timer$u20$as$u20$core..future..future..Future$GT$4poll17h72b7d707e049386aE>
    1218:	b168      	cbz	r0, 1236 <_ZN30microbit_async_display_example7display26LedMatrix$LT$P$C$_$C$_$GT$7animate28_$u7b$$u7b$closure$u7d$$u7d$17hb06aa3ac67ad1877E+0x120>
    121a:	e7ff      	b.n	121c <_ZN30microbit_async_display_example7display26LedMatrix$LT$P$C$_$C$_$GT$7animate28_$u7b$$u7b$closure$u7d$$u7d$17hb06aa3ac67ad1877E+0x106>
    121c:	2001      	movs	r0, #1
    121e:	f88d 0027 	strb.w	r0, [sp, #39]	@ 0x27
    1222:	9908      	ldr	r1, [sp, #32]
    1224:	2003      	movs	r0, #3
    1226:	f881 0058 	strb.w	r0, [r1, #88]	@ 0x58
    122a:	f89d 0027 	ldrb.w	r0, [sp, #39]	@ 0x27
    122e:	b04a      	add	sp, #296	@ 0x128
    1230:	f85d bb04 	ldr.w	fp, [sp], #4
    1234:	bdf0      	pop	{r4, r5, r6, r7, pc}
        loop {
    1236:	e7d0      	b.n	11da <_ZN30microbit_async_display_example7display26LedMatrix$LT$P$C$_$C$_$GT$7animate28_$u7b$$u7b$closure$u7d$$u7d$17hb06aa3ac67ad1877E+0xc4>
            self.render();
    1238:	9808      	ldr	r0, [sp, #32]
    123a:	6d00      	ldr	r0, [r0, #80]	@ 0x50
    123c:	f7ff fca7 	bl	b8e <_ZN30microbit_async_display_example7display26LedMatrix$LT$P$C$_$C$_$GT$6render17h38b0b998779ccae4E>
    1240:	a840      	add	r0, sp, #256	@ 0x100
    1242:	2211      	movs	r2, #17
    1244:	2300      	movs	r3, #0
            Timer::after(REFRESH_INTERVAL).await;
    1246:	f005 fc41 	bl	6acc <_ZN12embassy_time5timer5Timer5after17h90fc56a887000710E>
    124a:	9a40      	ldr	r2, [sp, #256]	@ 0x100
    124c:	9b41      	ldr	r3, [sp, #260]	@ 0x104
    124e:	f89d 0108 	ldrb.w	r0, [sp, #264]	@ 0x108
    1252:	4669      	mov	r1, sp
    1254:	6008      	str	r0, [r1, #0]
    1256:	a844      	add	r0, sp, #272	@ 0x110
    1258:	f002 f871 	bl	333e <_ZN59_$LT$F$u20$as$u20$core..future..into_future..IntoFuture$GT$11into_future17hb4b3c43807099097E>
    125c:	9a44      	ldr	r2, [sp, #272]	@ 0x110
    125e:	9b45      	ldr	r3, [sp, #276]	@ 0x114
    1260:	f89d 0118 	ldrb.w	r0, [sp, #280]	@ 0x118
    1264:	9908      	ldr	r1, [sp, #32]
    1266:	634b      	str	r3, [r1, #52]	@ 0x34
    1268:	630a      	str	r2, [r1, #48]	@ 0x30
    126a:	f881 0038 	strb.w	r0, [r1, #56]	@ 0x38
    126e:	e7cd      	b.n	120c <_ZN30microbit_async_display_example7display26LedMatrix$LT$P$C$_$C$_$GT$7animate28_$u7b$$u7b$closure$u7d$$u7d$17hb06aa3ac67ad1877E+0xf6>
    1270:	a819      	add	r0, sp, #100	@ 0x64
                AnimationState::Apply(f) => {
    1272:	1d01      	adds	r1, r0, #4
    1274:	ab24      	add	r3, sp, #144	@ 0x90
    1276:	4618      	mov	r0, r3
    1278:	e8b1 5034 	ldmia.w	r1!, {r2, r4, r5, ip, lr}
    127c:	e8a0 5034 	stmia.w	r0!, {r2, r4, r5, ip, lr}
    1280:	e891 5034 	ldmia.w	r1, {r2, r4, r5, ip, lr}
    1284:	e880 5034 	stmia.w	r0, {r2, r4, r5, ip, lr}
                    self.apply(f);
    1288:	9808      	ldr	r0, [sp, #32]
    128a:	6d00      	ldr	r0, [r0, #80]	@ 0x50
    128c:	a936      	add	r1, sp, #216	@ 0xd8
    128e:	460a      	mov	r2, r1
    1290:	e8b3 5070 	ldmia.w	r3!, {r4, r5, r6, ip, lr}
    1294:	e8a2 5070 	stmia.w	r2!, {r4, r5, r6, ip, lr}
    1298:	e893 5070 	ldmia.w	r3, {r4, r5, r6, ip, lr}
    129c:	e882 5070 	stmia.w	r2, {r4, r5, r6, ip, lr}
    12a0:	f7ff fc5d 	bl	b5e <_ZN30microbit_async_display_example7display26LedMatrix$LT$P$C$_$C$_$GT$5apply17ha4d902a50f6e9c9dE>
    12a4:	e7c8      	b.n	1238 <_ZN30microbit_async_display_example7display26LedMatrix$LT$P$C$_$C$_$GT$7animate28_$u7b$$u7b$closure$u7d$$u7d$17hb06aa3ac67ad1877E+0x122>
        self.clear();
    12a6:	9808      	ldr	r0, [sp, #32]
    12a8:	6d00      	ldr	r0, [r0, #80]	@ 0x50
    12aa:	f7ff fc1f 	bl	aec <_ZN30microbit_async_display_example7display26LedMatrix$LT$P$C$_$C$_$GT$5clear17hb390533ac5a580c4E>
    12ae:	2000      	movs	r0, #0
    }
    12b0:	f88d 0027 	strb.w	r0, [sp, #39]	@ 0x27
    12b4:	9908      	ldr	r1, [sp, #32]
    12b6:	2001      	movs	r0, #1
    12b8:	f881 0058 	strb.w	r0, [r1, #88]	@ 0x58
    12bc:	f89d 0027 	ldrb.w	r0, [sp, #39]	@ 0x27
    12c0:	b04a      	add	sp, #296	@ 0x128
    12c2:	f85d bb04 	ldr.w	fp, [sp], #4
    12c6:	bdf0      	pop	{r4, r5, r6, r7, pc}

000012c8 <_ZN30microbit_async_display_example7display26AnimationData$LT$_$C$_$GT$3len17hdbb05d4ecc74d999E>:
    Frames(&'a [Frame<XSIZE, YSIZE>]),
    Bytes(&'a [u8]),
}

impl<'a, const XSIZE: usize, const YSIZE: usize> AnimationData<'a, XSIZE, YSIZE> {
    fn len(&self) -> usize {
    12c8:	b580      	push	{r7, lr}
    12ca:	466f      	mov	r7, sp
    12cc:	b085      	sub	sp, #20
    12ce:	9000      	str	r0, [sp, #0]
    12d0:	9002      	str	r0, [sp, #8]
        match self {
    12d2:	6800      	ldr	r0, [r0, #0]
    12d4:	07c0      	lsls	r0, r0, #31
    12d6:	b130      	cbz	r0, 12e6 <_ZN30microbit_async_display_example7display26AnimationData$LT$_$C$_$GT$3len17hdbb05d4ecc74d999E+0x1e>
    12d8:	e7ff      	b.n	12da <_ZN30microbit_async_display_example7display26AnimationData$LT$_$C$_$GT$3len17hdbb05d4ecc74d999E+0x12>
            AnimationData::Frames(f) => f.len(),
            AnimationData::Bytes(f) => f.len(),
    12da:	9800      	ldr	r0, [sp, #0]
    12dc:	1d01      	adds	r1, r0, #4
    12de:	9104      	str	r1, [sp, #16]
    12e0:	6880      	ldr	r0, [r0, #8]
    12e2:	9001      	str	r0, [sp, #4]
    12e4:	e005      	b.n	12f2 <_ZN30microbit_async_display_example7display26AnimationData$LT$_$C$_$GT$3len17hdbb05d4ecc74d999E+0x2a>
            AnimationData::Frames(f) => f.len(),
    12e6:	9800      	ldr	r0, [sp, #0]
    12e8:	1d01      	adds	r1, r0, #4
    12ea:	9103      	str	r1, [sp, #12]
    12ec:	6880      	ldr	r0, [r0, #8]
    12ee:	9001      	str	r0, [sp, #4]
    12f0:	e7ff      	b.n	12f2 <_ZN30microbit_async_display_example7display26AnimationData$LT$_$C$_$GT$3len17hdbb05d4ecc74d999E+0x2a>
        }
    }
    12f2:	9801      	ldr	r0, [sp, #4]
    12f4:	b005      	add	sp, #20
    12f6:	bd80      	pop	{r7, pc}

000012f8 <_ZN30microbit_async_display_example7display26AnimationData$LT$_$C$_$GT$5frame17h71c87e1aad83913bE>:

    fn frame(&self, idx: usize) -> Frame<XSIZE, YSIZE> {
    12f8:	b5d0      	push	{r4, r6, r7, lr}
    12fa:	af02      	add	r7, sp, #8
    12fc:	b08c      	sub	sp, #48	@ 0x30
    12fe:	9205      	str	r2, [sp, #20]
    1300:	9106      	str	r1, [sp, #24]
    1302:	9007      	str	r0, [sp, #28]
    1304:	9108      	str	r1, [sp, #32]
    1306:	9209      	str	r2, [sp, #36]	@ 0x24
        match self {
    1308:	6808      	ldr	r0, [r1, #0]
    130a:	07c0      	lsls	r0, r0, #31
    130c:	b158      	cbz	r0, 1326 <_ZN30microbit_async_display_example7display26AnimationData$LT$_$C$_$GT$5frame17h71c87e1aad83913bE+0x2e>
    130e:	e7ff      	b.n	1310 <_ZN30microbit_async_display_example7display26AnimationData$LT$_$C$_$GT$5frame17h71c87e1aad83913bE+0x18>
            AnimationData::Frames(f) => f[idx],
            AnimationData::Bytes(f) => f[idx].into(),
    1310:	9805      	ldr	r0, [sp, #20]
    1312:	9906      	ldr	r1, [sp, #24]
    1314:	1d0a      	adds	r2, r1, #4
    1316:	4613      	mov	r3, r2
    1318:	9303      	str	r3, [sp, #12]
    131a:	920b      	str	r2, [sp, #44]	@ 0x2c
    131c:	6889      	ldr	r1, [r1, #8]
    131e:	9104      	str	r1, [sp, #16]
    1320:	4288      	cmp	r0, r1
    1322:	d326      	bcc.n	1372 <_ZN30microbit_async_display_example7display26AnimationData$LT$_$C$_$GT$5frame17h71c87e1aad83913bE+0x7a>
    1324:	e02d      	b.n	1382 <_ZN30microbit_async_display_example7display26AnimationData$LT$_$C$_$GT$5frame17h71c87e1aad83913bE+0x8a>
            AnimationData::Frames(f) => f[idx],
    1326:	9805      	ldr	r0, [sp, #20]
    1328:	9906      	ldr	r1, [sp, #24]
    132a:	1d0a      	adds	r2, r1, #4
    132c:	4613      	mov	r3, r2
    132e:	9301      	str	r3, [sp, #4]
    1330:	920a      	str	r2, [sp, #40]	@ 0x28
    1332:	6889      	ldr	r1, [r1, #8]
    1334:	9102      	str	r1, [sp, #8]
    1336:	4288      	cmp	r0, r1
    1338:	d211      	bcs.n	135e <_ZN30microbit_async_display_example7display26AnimationData$LT$_$C$_$GT$5frame17h71c87e1aad83913bE+0x66>
    133a:	e7ff      	b.n	133c <_ZN30microbit_async_display_example7display26AnimationData$LT$_$C$_$GT$5frame17h71c87e1aad83913bE+0x44>
    133c:	9807      	ldr	r0, [sp, #28]
    133e:	9a05      	ldr	r2, [sp, #20]
    1340:	9901      	ldr	r1, [sp, #4]
    1342:	6809      	ldr	r1, [r1, #0]
    1344:	eb02 0282 	add.w	r2, r2, r2, lsl #2
    1348:	eb01 01c2 	add.w	r1, r1, r2, lsl #3
    134c:	e8b1 501c 	ldmia.w	r1!, {r2, r3, r4, ip, lr}
    1350:	e8a0 501c 	stmia.w	r0!, {r2, r3, r4, ip, lr}
    1354:	e891 501c 	ldmia.w	r1, {r2, r3, r4, ip, lr}
    1358:	e880 501c 	stmia.w	r0, {r2, r3, r4, ip, lr}
    135c:	e007      	b.n	136e <_ZN30microbit_async_display_example7display26AnimationData$LT$_$C$_$GT$5frame17h71c87e1aad83913bE+0x76>
    135e:	9902      	ldr	r1, [sp, #8]
    1360:	9805      	ldr	r0, [sp, #20]
    1362:	f64b 52e8 	movw	r2, #48616	@ 0xbde8
    1366:	f2c0 0200 	movt	r2, #0
    136a:	f009 f8c5 	bl	a4f8 <_ZN4core9panicking18panic_bounds_check17hbfa4b59d350ae7c0E>
        }
    }
    136e:	b00c      	add	sp, #48	@ 0x30
    1370:	bdd0      	pop	{r4, r6, r7, pc}
            AnimationData::Bytes(f) => f[idx].into(),
    1372:	9807      	ldr	r0, [sp, #28]
    1374:	9a05      	ldr	r2, [sp, #20]
    1376:	9903      	ldr	r1, [sp, #12]
    1378:	6809      	ldr	r1, [r1, #0]
    137a:	5c89      	ldrb	r1, [r1, r2]
    137c:	f001 ff3b 	bl	31f6 <_ZN30microbit_async_display_example5fonts117_$LT$impl$u20$core..convert..Into$LT$microbit_async_display_example..types..Frame$LT$_$C$_$GT$$GT$$u20$for$u20$u8$GT$4into17h0b58ee4b162ed695E>
    1380:	e7f5      	b.n	136e <_ZN30microbit_async_display_example7display26AnimationData$LT$_$C$_$GT$5frame17h71c87e1aad83913bE+0x76>
    1382:	9904      	ldr	r1, [sp, #16]
    1384:	9805      	ldr	r0, [sp, #20]
    1386:	f64b 52f8 	movw	r2, #48632	@ 0xbdf8
    138a:	f2c0 0200 	movt	r2, #0
    138e:	f009 f8b3 	bl	a4f8 <_ZN4core9panicking18panic_bounds_check17hbfa4b59d350ae7c0E>

00001392 <_ZN30microbit_async_display_example7display22Animation$LT$_$C$_$GT$3new17hc349e1509ac35d71E>:
    Apply(Frame<XSIZE, YSIZE>),
    Done,
}

impl<'a, const XSIZE: usize, const YSIZE: usize> Animation<'a, XSIZE, YSIZE> {
    pub fn new(
    1392:	b5f0      	push	{r4, r5, r6, r7, lr}
    1394:	af03      	add	r7, sp, #12
    1396:	f84d 8d04 	str.w	r8, [sp, #-4]!
    139a:	b0a2      	sub	sp, #136	@ 0x88
    139c:	4613      	mov	r3, r2
        frames: AnimationData<'a, XSIZE, YSIZE>,
    139e:	9106      	str	r1, [sp, #24]
    13a0:	4601      	mov	r1, r0
    13a2:	9806      	ldr	r0, [sp, #24]
    13a4:	9107      	str	r1, [sp, #28]
    13a6:	68fa      	ldr	r2, [r7, #12]
    13a8:	9208      	str	r2, [sp, #32]
    13aa:	68b9      	ldr	r1, [r7, #8]
    13ac:	9109      	str	r1, [sp, #36]	@ 0x24
    13ae:	469c      	mov	ip, r3
    13b0:	f8cd c028 	str.w	ip, [sp, #40]	@ 0x28
    13b4:	f807 3c21 	strb.w	r3, [r7, #-33]
    13b8:	921f      	str	r2, [sp, #124]	@ 0x7c
    13ba:	911e      	str	r1, [sp, #120]	@ 0x78
        effect: AnimationEffect,
        duration: Duration,
    ) -> Result<Self, AnimationError> {
        assert!(frames.len() > 0);
    13bc:	f7ff ff84 	bl	12c8 <_ZN30microbit_async_display_example7display26AnimationData$LT$_$C$_$GT$3len17hdbb05d4ecc74d999E>
    13c0:	b958      	cbnz	r0, 13da <_ZN30microbit_async_display_example7display22Animation$LT$_$C$_$GT$3new17hc349e1509ac35d71E+0x48>
    13c2:	e7ff      	b.n	13c4 <_ZN30microbit_async_display_example7display22Animation$LT$_$C$_$GT$3new17hc349e1509ac35d71E+0x32>
    13c4:	f64b 6008 	movw	r0, #48648	@ 0xbe08
    13c8:	f2c0 0000 	movt	r0, #0
    13cc:	f64b 622c 	movw	r2, #48684	@ 0xbe2c
    13d0:	f2c0 0200 	movt	r2, #0
    13d4:	2122      	movs	r1, #34	@ 0x22
    13d6:	f009 f848 	bl	a46a <_ZN4core9panicking5panic17h5284cc5a37f28ed9E>
        let length = match effect {
    13da:	980a      	ldr	r0, [sp, #40]	@ 0x28
    13dc:	07c0      	lsls	r0, r0, #31
    13de:	b148      	cbz	r0, 13f4 <_ZN30microbit_async_display_example7display22Animation$LT$_$C$_$GT$3new17hc349e1509ac35d71E+0x62>
    13e0:	e7ff      	b.n	13e2 <_ZN30microbit_async_display_example7display22Animation$LT$_$C$_$GT$3new17hc349e1509ac35d71E+0x50>
            AnimationEffect::Slide => frames.len() * XSIZE,
    13e2:	9806      	ldr	r0, [sp, #24]
    13e4:	f7ff ff70 	bl	12c8 <_ZN30microbit_async_display_example7display26AnimationData$LT$_$C$_$GT$3len17hdbb05d4ecc74d999E>
    13e8:	2105      	movs	r1, #5
    13ea:	fba0 0101 	umull	r0, r1, r0, r1
    13ee:	9005      	str	r0, [sp, #20]
    13f0:	b9a1      	cbnz	r1, 141c <_ZN30microbit_async_display_example7display22Animation$LT$_$C$_$GT$3new17hc349e1509ac35d71E+0x8a>
    13f2:	e010      	b.n	1416 <_ZN30microbit_async_display_example7display22Animation$LT$_$C$_$GT$3new17hc349e1509ac35d71E+0x84>
            AnimationEffect::None => frames.len(),
    13f4:	9806      	ldr	r0, [sp, #24]
    13f6:	f7ff ff67 	bl	12c8 <_ZN30microbit_async_display_example7display26AnimationData$LT$_$C$_$GT$3len17hdbb05d4ecc74d999E>
    13fa:	900b      	str	r0, [sp, #44]	@ 0x2c
    13fc:	e7ff      	b.n	13fe <_ZN30microbit_async_display_example7display22Animation$LT$_$C$_$GT$3new17hc349e1509ac35d71E+0x6c>
        };

        if let Some(wait) = duration.checked_div(length as u32) {
    13fe:	9b08      	ldr	r3, [sp, #32]
    1400:	9a09      	ldr	r2, [sp, #36]	@ 0x24
    1402:	980b      	ldr	r0, [sp, #44]	@ 0x2c
    1404:	4669      	mov	r1, sp
    1406:	6008      	str	r0, [r1, #0]
    1408:	a80c      	add	r0, sp, #48	@ 0x30
    140a:	f005 fa63 	bl	68d4 <_ZN12embassy_time8duration8Duration11checked_div17h687a26f6402f5c7eE>
    140e:	980c      	ldr	r0, [sp, #48]	@ 0x30
    1410:	07c0      	lsls	r0, r0, #31
    1412:	b948      	cbnz	r0, 1428 <_ZN30microbit_async_display_example7display22Animation$LT$_$C$_$GT$3new17hc349e1509ac35d71E+0x96>
    1414:	e03f      	b.n	1496 <_ZN30microbit_async_display_example7display22Animation$LT$_$C$_$GT$3new17hc349e1509ac35d71E+0x104>
            AnimationEffect::Slide => frames.len() * XSIZE,
    1416:	9805      	ldr	r0, [sp, #20]
    1418:	900b      	str	r0, [sp, #44]	@ 0x2c
    141a:	e7f0      	b.n	13fe <_ZN30microbit_async_display_example7display22Animation$LT$_$C$_$GT$3new17hc349e1509ac35d71E+0x6c>
    141c:	f64b 603c 	movw	r0, #48700	@ 0xbe3c
    1420:	f2c0 0000 	movt	r0, #0
    1424:	f009 fea7 	bl	b176 <_ZN4core9panicking11panic_const24panic_const_mul_overflow17h506b9e9ec8555105E>
        if let Some(wait) = duration.checked_div(length as u32) {
    1428:	f8dd 8018 	ldr.w	r8, [sp, #24]
    142c:	980e      	ldr	r0, [sp, #56]	@ 0x38
    142e:	9003      	str	r0, [sp, #12]
    1430:	990f      	ldr	r1, [sp, #60]	@ 0x3c
    1432:	9102      	str	r1, [sp, #8]
    1434:	9121      	str	r1, [sp, #132]	@ 0x84
    1436:	9020      	str	r0, [sp, #128]	@ 0x80
            Ok(Self {
                frames,
                frame_index: 0,
                sequence: 0,
                index: 0,
                length,
    1438:	9c0b      	ldr	r4, [sp, #44]	@ 0x2c
                effect,
                wait,
                next: Instant::now(),
    143a:	f005 fab1 	bl	69a0 <_ZN12embassy_time7instant7Instant3now17hfcd4d5f32b6e690aE>
    143e:	f8dd c008 	ldr.w	ip, [sp, #8]
    1442:	9b03      	ldr	r3, [sp, #12]
    1444:	f8dd e028 	ldr.w	lr, [sp, #40]	@ 0x28
    1448:	4602      	mov	r2, r0
    144a:	9807      	ldr	r0, [sp, #28]
    144c:	9204      	str	r2, [sp, #16]
    144e:	460a      	mov	r2, r1
            Ok(Self {
    1450:	9904      	ldr	r1, [sp, #16]
    1452:	f8d8 5000 	ldr.w	r5, [r8]
    1456:	f8d8 6004 	ldr.w	r6, [r8, #4]
    145a:	f8d8 8008 	ldr.w	r8, [r8, #8]
    145e:	f8cd 8068 	str.w	r8, [sp, #104]	@ 0x68
    1462:	9619      	str	r6, [sp, #100]	@ 0x64
    1464:	9518      	str	r5, [sp, #96]	@ 0x60
    1466:	2500      	movs	r5, #0
    1468:	9514      	str	r5, [sp, #80]	@ 0x50
    146a:	9515      	str	r5, [sp, #84]	@ 0x54
    146c:	9516      	str	r5, [sp, #88]	@ 0x58
    146e:	9417      	str	r4, [sp, #92]	@ 0x5c
    1470:	f00e 0e01 	and.w	lr, lr, #1
    1474:	f88d e06c 	strb.w	lr, [sp, #108]	@ 0x6c
    1478:	f8cd c044 	str.w	ip, [sp, #68]	@ 0x44
    147c:	9310      	str	r3, [sp, #64]	@ 0x40
    147e:	9213      	str	r2, [sp, #76]	@ 0x4c
    1480:	9112      	str	r1, [sp, #72]	@ 0x48
    1482:	a910      	add	r1, sp, #64	@ 0x40
    1484:	e8b1 503c 	ldmia.w	r1!, {r2, r3, r4, r5, ip, lr}
    1488:	e8a0 503c 	stmia.w	r0!, {r2, r3, r4, r5, ip, lr}
    148c:	e891 503c 	ldmia.w	r1, {r2, r3, r4, r5, ip, lr}
    1490:	e880 503c 	stmia.w	r0, {r2, r3, r4, r5, ip, lr}
        if let Some(wait) = duration.checked_div(length as u32) {
    1494:	e003      	b.n	149e <_ZN30microbit_async_display_example7display22Animation$LT$_$C$_$GT$3new17hc349e1509ac35d71E+0x10c>
    1496:	9907      	ldr	r1, [sp, #28]
    1498:	2002      	movs	r0, #2
            })
        } else {
            Err(AnimationError::TooFast)
    149a:	6208      	str	r0, [r1, #32]
        if let Some(wait) = duration.checked_div(length as u32) {
    149c:	e7ff      	b.n	149e <_ZN30microbit_async_display_example7display22Animation$LT$_$C$_$GT$3new17hc349e1509ac35d71E+0x10c>
        }
    }
    149e:	b022      	add	sp, #136	@ 0x88
    14a0:	f85d 8b04 	ldr.w	r8, [sp], #4
    14a4:	bdf0      	pop	{r4, r5, r6, r7, pc}

000014a6 <_ZN30microbit_async_display_example7display22Animation$LT$_$C$_$GT$7current17h8c0c9b1294db6a9dE>:
    fn current(&self) -> Frame<XSIZE, YSIZE> {
    14a6:	b5d0      	push	{r4, r6, r7, lr}
    14a8:	af02      	add	r7, sp, #8
    14aa:	b0a0      	sub	sp, #128	@ 0x80
    14ac:	9107      	str	r1, [sp, #28]
    14ae:	4601      	mov	r1, r0
    14b0:	9807      	ldr	r0, [sp, #28]
    14b2:	9106      	str	r1, [sp, #24]
    14b4:	901f      	str	r0, [sp, #124]	@ 0x7c
        let mut current = self.frames.frame(self.frame_index);
    14b6:	f100 0120 	add.w	r1, r0, #32
    14ba:	9108      	str	r1, [sp, #32]
    14bc:	6942      	ldr	r2, [r0, #20]
    14be:	a80b      	add	r0, sp, #44	@ 0x2c
    14c0:	f7ff ff1a 	bl	12f8 <_ZN30microbit_async_display_example7display26AnimationData$LT$_$C$_$GT$5frame17h71c87e1aad83913bE>
    14c4:	9907      	ldr	r1, [sp, #28]
    14c6:	9808      	ldr	r0, [sp, #32]

        let mut next = if self.frame_index < self.frames.len() - 1 {
    14c8:	6949      	ldr	r1, [r1, #20]
    14ca:	9109      	str	r1, [sp, #36]	@ 0x24
    14cc:	f7ff fefc 	bl	12c8 <_ZN30microbit_async_display_example7display26AnimationData$LT$_$C$_$GT$3len17hdbb05d4ecc74d999E>
    14d0:	1e41      	subs	r1, r0, #1
    14d2:	910a      	str	r1, [sp, #40]	@ 0x28
    14d4:	b128      	cbz	r0, 14e2 <_ZN30microbit_async_display_example7display22Animation$LT$_$C$_$GT$7current17h8c0c9b1294db6a9dE+0x3c>
    14d6:	e7ff      	b.n	14d8 <_ZN30microbit_async_display_example7display22Animation$LT$_$C$_$GT$7current17h8c0c9b1294db6a9dE+0x32>
    14d8:	9809      	ldr	r0, [sp, #36]	@ 0x24
    14da:	990a      	ldr	r1, [sp, #40]	@ 0x28
    14dc:	4288      	cmp	r0, r1
    14de:	d30a      	bcc.n	14f6 <_ZN30microbit_async_display_example7display22Animation$LT$_$C$_$GT$7current17h8c0c9b1294db6a9dE+0x50>
    14e0:	e005      	b.n	14ee <_ZN30microbit_async_display_example7display22Animation$LT$_$C$_$GT$7current17h8c0c9b1294db6a9dE+0x48>
    14e2:	f64b 604c 	movw	r0, #48716	@ 0xbe4c
    14e6:	f2c0 0000 	movt	r0, #0
    14ea:	f009 fe31 	bl	b150 <_ZN4core9panicking11panic_const24panic_const_sub_overflow17ha4c339b91653944eE>
    14ee:	a815      	add	r0, sp, #84	@ 0x54
            self.frames.frame(self.frame_index + 1)
        } else {
            Frame::empty()
    14f0:	f001 fb45 	bl	2b7e <_ZN30microbit_async_display_example5types18Frame$LT$_$C$_$GT$5empty17h8a63f91ef58e935cE>
    14f4:	e009      	b.n	150a <_ZN30microbit_async_display_example7display22Animation$LT$_$C$_$GT$7current17h8c0c9b1294db6a9dE+0x64>
            self.frames.frame(self.frame_index + 1)
    14f6:	9807      	ldr	r0, [sp, #28]
    14f8:	f100 0120 	add.w	r1, r0, #32
    14fc:	9104      	str	r1, [sp, #16]
    14fe:	6941      	ldr	r1, [r0, #20]
    1500:	1c48      	adds	r0, r1, #1
    1502:	4288      	cmp	r0, r1
    1504:	9005      	str	r0, [sp, #20]
    1506:	d313      	bcc.n	1530 <_ZN30microbit_async_display_example7display22Animation$LT$_$C$_$GT$7current17h8c0c9b1294db6a9dE+0x8a>
    1508:	e00c      	b.n	1524 <_ZN30microbit_async_display_example7display22Animation$LT$_$C$_$GT$7current17h8c0c9b1294db6a9dE+0x7e>
        };

        current.shift_left(self.sequence);
    150a:	9807      	ldr	r0, [sp, #28]
    150c:	6901      	ldr	r1, [r0, #16]
    150e:	a80b      	add	r0, sp, #44	@ 0x2c
    1510:	f001 fbdf 	bl	2cd2 <_ZN30microbit_async_display_example5types18Frame$LT$_$C$_$GT$10shift_left17h5cb7b08e0f66087bE>
    1514:	9807      	ldr	r0, [sp, #28]
        next.shift_right(XSIZE - self.sequence);
    1516:	6900      	ldr	r0, [r0, #16]
    1518:	f1c0 0105 	rsb	r1, r0, #5
    151c:	9103      	str	r1, [sp, #12]
    151e:	2805      	cmp	r0, #5
    1520:	d822      	bhi.n	1568 <_ZN30microbit_async_display_example7display22Animation$LT$_$C$_$GT$7current17h8c0c9b1294db6a9dE+0xc2>
    1522:	e00b      	b.n	153c <_ZN30microbit_async_display_example7display22Animation$LT$_$C$_$GT$7current17h8c0c9b1294db6a9dE+0x96>
            self.frames.frame(self.frame_index + 1)
    1524:	9a05      	ldr	r2, [sp, #20]
    1526:	9904      	ldr	r1, [sp, #16]
    1528:	a815      	add	r0, sp, #84	@ 0x54
    152a:	f7ff fee5 	bl	12f8 <_ZN30microbit_async_display_example7display26AnimationData$LT$_$C$_$GT$5frame17h71c87e1aad83913bE>
    152e:	e7ec      	b.n	150a <_ZN30microbit_async_display_example7display22Animation$LT$_$C$_$GT$7current17h8c0c9b1294db6a9dE+0x64>
    1530:	f64b 605c 	movw	r0, #48732	@ 0xbe5c
    1534:	f2c0 0000 	movt	r0, #0
    1538:	f009 fdf7 	bl	b12a <_ZN4core9panicking11panic_const24panic_const_add_overflow17he3ca46f2f2ec3678E>
        next.shift_right(XSIZE - self.sequence);
    153c:	9903      	ldr	r1, [sp, #12]
    153e:	a815      	add	r0, sp, #84	@ 0x54
    1540:	9001      	str	r0, [sp, #4]
    1542:	f001 fbf5 	bl	2d30 <_ZN30microbit_async_display_example5types18Frame$LT$_$C$_$GT$11shift_right17h3a54ca669bd30064E>
    1546:	9901      	ldr	r1, [sp, #4]
    1548:	a80b      	add	r0, sp, #44	@ 0x2c

        current.or(&next);
    154a:	9002      	str	r0, [sp, #8]
    154c:	f001 fb82 	bl	2c54 <_ZN30microbit_async_display_example5types18Frame$LT$_$C$_$GT$2or17h2a9318b29343ef4fE>
    1550:	9806      	ldr	r0, [sp, #24]
    1552:	9902      	ldr	r1, [sp, #8]
        current
    1554:	e8b1 501c 	ldmia.w	r1!, {r2, r3, r4, ip, lr}
    1558:	e8a0 501c 	stmia.w	r0!, {r2, r3, r4, ip, lr}
    155c:	e891 501c 	ldmia.w	r1, {r2, r3, r4, ip, lr}
    1560:	e880 501c 	stmia.w	r0, {r2, r3, r4, ip, lr}
    }
    1564:	b020      	add	sp, #128	@ 0x80
    1566:	bdd0      	pop	{r4, r6, r7, pc}
        next.shift_right(XSIZE - self.sequence);
    1568:	f64b 606c 	movw	r0, #48748	@ 0xbe6c
    156c:	f2c0 0000 	movt	r0, #0
    1570:	f009 fdee 	bl	b150 <_ZN4core9panicking11panic_const24panic_const_sub_overflow17ha4c339b91653944eE>

00001574 <_ZN30microbit_async_display_example7display22Animation$LT$_$C$_$GT$4next17ha1934380e637d722E>:

    fn next(&mut self, now: Instant) -> AnimationState<XSIZE, YSIZE> {
    1574:	b5b0      	push	{r4, r5, r7, lr}
    1576:	af02      	add	r7, sp, #8
    1578:	b094      	sub	sp, #80	@ 0x50
    157a:	9104      	str	r1, [sp, #16]
    157c:	9005      	str	r0, [sp, #20]
    157e:	9307      	str	r3, [sp, #28]
    1580:	9206      	str	r2, [sp, #24]
    1582:	9113      	str	r1, [sp, #76]	@ 0x4c
        if self.next <= now {
    1584:	f101 0008 	add.w	r0, r1, #8
    1588:	a906      	add	r1, sp, #24
    158a:	f004 ffc9 	bl	6520 <_ZN4core3cmp10PartialOrd2le17hd86e12ae1182a6c9E>
    158e:	b920      	cbnz	r0, 159a <_ZN30microbit_async_display_example7display22Animation$LT$_$C$_$GT$4next17ha1934380e637d722E+0x26>
    1590:	e7ff      	b.n	1592 <_ZN30microbit_async_display_example7display22Animation$LT$_$C$_$GT$4next17ha1934380e637d722E+0x1e>
    1592:	9905      	ldr	r1, [sp, #20]
    1594:	2000      	movs	r0, #0
                AnimationState::Apply(current)
            } else {
                AnimationState::Done
            }
        } else {
            AnimationState::Wait
    1596:	6008      	str	r0, [r1, #0]
        if self.next <= now {
    1598:	e005      	b.n	15a6 <_ZN30microbit_async_display_example7display22Animation$LT$_$C$_$GT$4next17ha1934380e637d722E+0x32>
            if self.index < self.length {
    159a:	9904      	ldr	r1, [sp, #16]
    159c:	6988      	ldr	r0, [r1, #24]
    159e:	69c9      	ldr	r1, [r1, #28]
    15a0:	4288      	cmp	r0, r1
    15a2:	d306      	bcc.n	15b2 <_ZN30microbit_async_display_example7display22Animation$LT$_$C$_$GT$4next17ha1934380e637d722E+0x3e>
    15a4:	e001      	b.n	15aa <_ZN30microbit_async_display_example7display22Animation$LT$_$C$_$GT$4next17ha1934380e637d722E+0x36>
        }
    }
    15a6:	b014      	add	sp, #80	@ 0x50
    15a8:	bdb0      	pop	{r4, r5, r7, pc}
    15aa:	9905      	ldr	r1, [sp, #20]
    15ac:	2002      	movs	r0, #2
                AnimationState::Done
    15ae:	6008      	str	r0, [r1, #0]
            if self.index < self.length {
    15b0:	e7f9      	b.n	15a6 <_ZN30microbit_async_display_example7display22Animation$LT$_$C$_$GT$4next17ha1934380e637d722E+0x32>
                let current = self.current();
    15b2:	9904      	ldr	r1, [sp, #16]
    15b4:	a808      	add	r0, sp, #32
    15b6:	f7ff ff76 	bl	14a6 <_ZN30microbit_async_display_example7display22Animation$LT$_$C$_$GT$7current17h8c0c9b1294db6a9dE>
    15ba:	9804      	ldr	r0, [sp, #16]
                if self.sequence >= XSIZE - 1 {
    15bc:	6900      	ldr	r0, [r0, #16]
    15be:	2803      	cmp	r0, #3
    15c0:	d807      	bhi.n	15d2 <_ZN30microbit_async_display_example7display22Animation$LT$_$C$_$GT$4next17ha1934380e637d722E+0x5e>
    15c2:	e7ff      	b.n	15c4 <_ZN30microbit_async_display_example7display22Animation$LT$_$C$_$GT$4next17ha1934380e637d722E+0x50>
                    self.sequence += 1;
    15c4:	9804      	ldr	r0, [sp, #16]
    15c6:	6901      	ldr	r1, [r0, #16]
    15c8:	1c48      	adds	r0, r1, #1
    15ca:	4288      	cmp	r0, r1
    15cc:	9003      	str	r0, [sp, #12]
    15ce:	d30a      	bcc.n	15e6 <_ZN30microbit_async_display_example7display22Animation$LT$_$C$_$GT$4next17ha1934380e637d722E+0x72>
    15d0:	e005      	b.n	15de <_ZN30microbit_async_display_example7display22Animation$LT$_$C$_$GT$4next17ha1934380e637d722E+0x6a>
                    self.sequence = match self.effect {
    15d2:	9804      	ldr	r0, [sp, #16]
    15d4:	f890 002c 	ldrb.w	r0, [r0, #44]	@ 0x2c
    15d8:	07c0      	lsls	r0, r0, #31
    15da:	b988      	cbnz	r0, 1600 <_ZN30microbit_async_display_example7display22Animation$LT$_$C$_$GT$4next17ha1934380e637d722E+0x8c>
    15dc:	e013      	b.n	1606 <_ZN30microbit_async_display_example7display22Animation$LT$_$C$_$GT$4next17ha1934380e637d722E+0x92>
                    self.sequence += 1;
    15de:	9803      	ldr	r0, [sp, #12]
    15e0:	9904      	ldr	r1, [sp, #16]
    15e2:	6108      	str	r0, [r1, #16]
                if self.sequence >= XSIZE - 1 {
    15e4:	e005      	b.n	15f2 <_ZN30microbit_async_display_example7display22Animation$LT$_$C$_$GT$4next17ha1934380e637d722E+0x7e>
                    self.sequence += 1;
    15e6:	f64b 607c 	movw	r0, #48764	@ 0xbe7c
    15ea:	f2c0 0000 	movt	r0, #0
    15ee:	f009 fd9c 	bl	b12a <_ZN4core9panicking11panic_const24panic_const_add_overflow17he3ca46f2f2ec3678E>
                self.index += 1;
    15f2:	9804      	ldr	r0, [sp, #16]
    15f4:	6981      	ldr	r1, [r0, #24]
    15f6:	1c48      	adds	r0, r1, #1
    15f8:	4288      	cmp	r0, r1
    15fa:	9002      	str	r0, [sp, #8]
    15fc:	d330      	bcc.n	1660 <_ZN30microbit_async_display_example7display22Animation$LT$_$C$_$GT$4next17ha1934380e637d722E+0xec>
    15fe:	e018      	b.n	1632 <_ZN30microbit_async_display_example7display22Animation$LT$_$C$_$GT$4next17ha1934380e637d722E+0xbe>
    1600:	2000      	movs	r0, #0
                        AnimationEffect::Slide => 0,
    1602:	9012      	str	r0, [sp, #72]	@ 0x48
    1604:	e002      	b.n	160c <_ZN30microbit_async_display_example7display22Animation$LT$_$C$_$GT$4next17ha1934380e637d722E+0x98>
    1606:	2005      	movs	r0, #5
                        AnimationEffect::None => XSIZE,
    1608:	9012      	str	r0, [sp, #72]	@ 0x48
    160a:	e7ff      	b.n	160c <_ZN30microbit_async_display_example7display22Animation$LT$_$C$_$GT$4next17ha1934380e637d722E+0x98>
                    self.sequence = match self.effect {
    160c:	9804      	ldr	r0, [sp, #16]
    160e:	9912      	ldr	r1, [sp, #72]	@ 0x48
    1610:	6101      	str	r1, [r0, #16]
                    self.frame_index += 1;
    1612:	6941      	ldr	r1, [r0, #20]
    1614:	1c48      	adds	r0, r1, #1
    1616:	4288      	cmp	r0, r1
    1618:	9001      	str	r0, [sp, #4]
    161a:	d304      	bcc.n	1626 <_ZN30microbit_async_display_example7display22Animation$LT$_$C$_$GT$4next17ha1934380e637d722E+0xb2>
    161c:	e7ff      	b.n	161e <_ZN30microbit_async_display_example7display22Animation$LT$_$C$_$GT$4next17ha1934380e637d722E+0xaa>
    161e:	9801      	ldr	r0, [sp, #4]
    1620:	9904      	ldr	r1, [sp, #16]
    1622:	6148      	str	r0, [r1, #20]
                if self.sequence >= XSIZE - 1 {
    1624:	e7e5      	b.n	15f2 <_ZN30microbit_async_display_example7display22Animation$LT$_$C$_$GT$4next17ha1934380e637d722E+0x7e>
                    self.frame_index += 1;
    1626:	f64b 608c 	movw	r0, #48780	@ 0xbe8c
    162a:	f2c0 0000 	movt	r0, #0
    162e:	f009 fd7c 	bl	b12a <_ZN4core9panicking11panic_const24panic_const_add_overflow17he3ca46f2f2ec3678E>
                self.index += 1;
    1632:	9904      	ldr	r1, [sp, #16]
    1634:	9802      	ldr	r0, [sp, #8]
    1636:	6188      	str	r0, [r1, #24]
                self.next += self.wait;
    1638:	f101 0008 	add.w	r0, r1, #8
    163c:	680a      	ldr	r2, [r1, #0]
    163e:	684b      	ldr	r3, [r1, #4]
    1640:	f005 fa32 	bl	6aa8 <_ZN118_$LT$embassy_time..instant..Instant$u20$as$u20$core..ops..arith..AddAssign$LT$embassy_time..duration..Duration$GT$$GT$10add_assign17hb58207f28b59a87eE>
    1644:	9905      	ldr	r1, [sp, #20]
                AnimationState::Apply(current)
    1646:	1d08      	adds	r0, r1, #4
    1648:	aa08      	add	r2, sp, #32
    164a:	e8b2 5038 	ldmia.w	r2!, {r3, r4, r5, ip, lr}
    164e:	e8a0 5038 	stmia.w	r0!, {r3, r4, r5, ip, lr}
    1652:	e892 5038 	ldmia.w	r2, {r3, r4, r5, ip, lr}
    1656:	e880 5038 	stmia.w	r0, {r3, r4, r5, ip, lr}
    165a:	2001      	movs	r0, #1
    165c:	6008      	str	r0, [r1, #0]
            if self.index < self.length {
    165e:	e7a2      	b.n	15a6 <_ZN30microbit_async_display_example7display22Animation$LT$_$C$_$GT$4next17ha1934380e637d722E+0x32>
                self.index += 1;
    1660:	f64b 609c 	movw	r0, #48796	@ 0xbe9c
    1664:	f2c0 0000 	movt	r0, #0
    1668:	f009 fd5f 	bl	b12a <_ZN4core9panicking11panic_const24panic_const_add_overflow17he3ca46f2f2ec3678E>

0000166c <_ZN92_$LT$microbit_async_display_example..display..AnimationError$u20$as$u20$core..fmt..Debug$GT$3fmt17h7010a0dc922b15aeE>:
}

#[derive(Debug, Clone, Copy)]
    166c:	b580      	push	{r7, lr}
    166e:	466f      	mov	r7, sp
    1670:	b084      	sub	sp, #16
    1672:	9101      	str	r1, [sp, #4]
    1674:	4601      	mov	r1, r0
    1676:	9801      	ldr	r0, [sp, #4]
    1678:	9102      	str	r1, [sp, #8]
    167a:	9003      	str	r0, [sp, #12]
    167c:	f64b 61ac 	movw	r1, #48812	@ 0xbeac
    1680:	f2c0 0100 	movt	r1, #0
    1684:	2207      	movs	r2, #7
    1686:	f009 fa82 	bl	ab8e <_ZN4core3fmt9Formatter9write_str17hf2abd6d7d3a79bb2E>
    168a:	b004      	add	sp, #16
    168c:	bd80      	pop	{r7, pc}

0000168e <_ZN4core3str21_$LT$impl$u20$str$GT$3len17ha6e9c427a1f032a9E>:
    #[stable(feature = "rust1", since = "1.0.0")]
    #[rustc_const_stable(feature = "const_str_len", since = "1.39.0")]
    #[rustc_diagnostic_item = "str_len"]
    #[must_use]
    #[inline]
    pub const fn len(&self) -> usize {
    168e:	b580      	push	{r7, lr}
    1690:	466f      	mov	r7, sp
    1692:	b083      	sub	sp, #12
    1694:	9100      	str	r1, [sp, #0]
    1696:	4601      	mov	r1, r0
    1698:	9800      	ldr	r0, [sp, #0]
    169a:	9101      	str	r1, [sp, #4]
    169c:	9002      	str	r0, [sp, #8]
        self.as_bytes().len()
    }
    169e:	b003      	add	sp, #12
    16a0:	bd80      	pop	{r7, pc}
    16a2:	d4d4      	bmi.n	164e <_ZN30microbit_async_display_example7display22Animation$LT$_$C$_$GT$4next17ha1934380e637d722E+0xda>

000016a4 <_ZN4core4sync6atomic23atomic_compare_exchange17h00bdad4426f09d8aE>:
}

#[inline]
#[cfg(target_has_atomic)]
#[cfg_attr(miri, track_caller)] // even without panics, this helps for Miri backtraces
unsafe fn atomic_compare_exchange<T: Copy>(
    16a4:	b580      	push	{r7, lr}
    16a6:	466f      	mov	r7, sp
    16a8:	b0a4      	sub	sp, #144	@ 0x90
    16aa:	9207      	str	r2, [sp, #28]
    16ac:	9108      	str	r1, [sp, #32]
    16ae:	4684      	mov	ip, r0
    16b0:	f8cd c024 	str.w	ip, [sp, #36]	@ 0x24
    16b4:	68b8      	ldr	r0, [r7, #8]
    16b6:	900a      	str	r0, [sp, #40]	@ 0x28
    16b8:	f8cd c070 	str.w	ip, [sp, #112]	@ 0x70
    16bc:	911d      	str	r1, [sp, #116]	@ 0x74
    16be:	921e      	str	r2, [sp, #120]	@ 0x78
    16c0:	f807 3c12 	strb.w	r3, [r7, #-18]
    16c4:	f807 0c11 	strb.w	r0, [r7, #-17]
/// Used by the format_args!() macro to create a fmt::Arguments object.
#[doc(hidden)]
#[unstable(feature = "fmt_internals", issue = "none")]
impl<'a> Arguments<'a> {
    #[inline]
    pub const fn new_const<const N: usize>(pieces: &'a [&'static str; N]) -> Self {
    16c8:	f64b 60e8 	movw	r0, #48872	@ 0xbee8
    16cc:	f2c0 0000 	movt	r0, #0
    16d0:	9020      	str	r0, [sp, #128]	@ 0x80
    16d2:	f64b 7030 	movw	r0, #48944	@ 0xbf30
    16d6:	f2c0 0000 	movt	r0, #0
    16da:	9021      	str	r0, [sp, #132]	@ 0x84
    success: Ordering,
    failure: Ordering,
) -> Result<T, T> {
    // SAFETY: the caller must uphold the safety contract for `atomic_compare_exchange`.
    let (val, ok) = unsafe {
        match (success, failure) {
    16dc:	b2d8      	uxtb	r0, r3
    16de:	900b      	str	r0, [sp, #44]	@ 0x2c
    16e0:	990b      	ldr	r1, [sp, #44]	@ 0x2c
    16e2:	e8df f001 	tbb	[pc, r1]
    16e6:	1304      	.short	0x1304
    16e8:	00493725 	.word	0x00493725
    16ec:	defe      	udf	#254	@ 0xfe
    16ee:	980a      	ldr	r0, [sp, #40]	@ 0x28
    16f0:	b2c0      	uxtb	r0, r0
    16f2:	4601      	mov	r1, r0
    16f4:	9106      	str	r1, [sp, #24]
    16f6:	2800      	cmp	r0, #0
    16f8:	d056      	beq.n	17a8 <_ZN4core4sync6atomic23atomic_compare_exchange17h00bdad4426f09d8aE+0x104>
    16fa:	e7ff      	b.n	16fc <_ZN4core4sync6atomic23atomic_compare_exchange17h00bdad4426f09d8aE+0x58>
    16fc:	9806      	ldr	r0, [sp, #24]
    16fe:	2802      	cmp	r0, #2
    1700:	d066      	beq.n	17d0 <_ZN4core4sync6atomic23atomic_compare_exchange17h00bdad4426f09d8aE+0x12c>
    1702:	e7ff      	b.n	1704 <_ZN4core4sync6atomic23atomic_compare_exchange17h00bdad4426f09d8aE+0x60>
    1704:	9806      	ldr	r0, [sp, #24]
    1706:	2804      	cmp	r0, #4
    1708:	d078      	beq.n	17fc <_ZN4core4sync6atomic23atomic_compare_exchange17h00bdad4426f09d8aE+0x158>
    170a:	e047      	b.n	179c <_ZN4core4sync6atomic23atomic_compare_exchange17h00bdad4426f09d8aE+0xf8>
    170c:	980a      	ldr	r0, [sp, #40]	@ 0x28
    170e:	b2c0      	uxtb	r0, r0
    1710:	4601      	mov	r1, r0
    1712:	9105      	str	r1, [sp, #20]
    1714:	2800      	cmp	r0, #0
    1716:	f000 8095 	beq.w	1844 <_ZN4core4sync6atomic23atomic_compare_exchange17h00bdad4426f09d8aE+0x1a0>
    171a:	e7ff      	b.n	171c <_ZN4core4sync6atomic23atomic_compare_exchange17h00bdad4426f09d8aE+0x78>
    171c:	9805      	ldr	r0, [sp, #20]
    171e:	2802      	cmp	r0, #2
    1720:	f000 80a6 	beq.w	1870 <_ZN4core4sync6atomic23atomic_compare_exchange17h00bdad4426f09d8aE+0x1cc>
    1724:	e7ff      	b.n	1726 <_ZN4core4sync6atomic23atomic_compare_exchange17h00bdad4426f09d8aE+0x82>
    1726:	9805      	ldr	r0, [sp, #20]
    1728:	2804      	cmp	r0, #4
    172a:	f000 80b9 	beq.w	18a0 <_ZN4core4sync6atomic23atomic_compare_exchange17h00bdad4426f09d8aE+0x1fc>
    172e:	e035      	b.n	179c <_ZN4core4sync6atomic23atomic_compare_exchange17h00bdad4426f09d8aE+0xf8>
    1730:	980a      	ldr	r0, [sp, #40]	@ 0x28
    1732:	b2c0      	uxtb	r0, r0
    1734:	4601      	mov	r1, r0
    1736:	9104      	str	r1, [sp, #16]
    1738:	2800      	cmp	r0, #0
    173a:	f000 80c9 	beq.w	18d0 <_ZN4core4sync6atomic23atomic_compare_exchange17h00bdad4426f09d8aE+0x22c>
    173e:	e7ff      	b.n	1740 <_ZN4core4sync6atomic23atomic_compare_exchange17h00bdad4426f09d8aE+0x9c>
    1740:	9804      	ldr	r0, [sp, #16]
    1742:	2802      	cmp	r0, #2
    1744:	f000 80da 	beq.w	18fc <_ZN4core4sync6atomic23atomic_compare_exchange17h00bdad4426f09d8aE+0x258>
    1748:	e7ff      	b.n	174a <_ZN4core4sync6atomic23atomic_compare_exchange17h00bdad4426f09d8aE+0xa6>
    174a:	9804      	ldr	r0, [sp, #16]
    174c:	2804      	cmp	r0, #4
    174e:	f000 80eb 	beq.w	1928 <_ZN4core4sync6atomic23atomic_compare_exchange17h00bdad4426f09d8aE+0x284>
    1752:	e023      	b.n	179c <_ZN4core4sync6atomic23atomic_compare_exchange17h00bdad4426f09d8aE+0xf8>
    1754:	980a      	ldr	r0, [sp, #40]	@ 0x28
    1756:	b2c0      	uxtb	r0, r0
    1758:	4601      	mov	r1, r0
    175a:	9103      	str	r1, [sp, #12]
    175c:	2800      	cmp	r0, #0
    175e:	f000 80fb 	beq.w	1958 <_ZN4core4sync6atomic23atomic_compare_exchange17h00bdad4426f09d8aE+0x2b4>
    1762:	e7ff      	b.n	1764 <_ZN4core4sync6atomic23atomic_compare_exchange17h00bdad4426f09d8aE+0xc0>
    1764:	9803      	ldr	r0, [sp, #12]
    1766:	2802      	cmp	r0, #2
    1768:	f000 810e 	beq.w	1988 <_ZN4core4sync6atomic23atomic_compare_exchange17h00bdad4426f09d8aE+0x2e4>
    176c:	e7ff      	b.n	176e <_ZN4core4sync6atomic23atomic_compare_exchange17h00bdad4426f09d8aE+0xca>
    176e:	9803      	ldr	r0, [sp, #12]
    1770:	2804      	cmp	r0, #4
    1772:	f000 8121 	beq.w	19b8 <_ZN4core4sync6atomic23atomic_compare_exchange17h00bdad4426f09d8aE+0x314>
    1776:	e011      	b.n	179c <_ZN4core4sync6atomic23atomic_compare_exchange17h00bdad4426f09d8aE+0xf8>
    1778:	980a      	ldr	r0, [sp, #40]	@ 0x28
    177a:	b2c0      	uxtb	r0, r0
    177c:	4601      	mov	r1, r0
    177e:	9102      	str	r1, [sp, #8]
    1780:	2800      	cmp	r0, #0
    1782:	f000 8131 	beq.w	19e8 <_ZN4core4sync6atomic23atomic_compare_exchange17h00bdad4426f09d8aE+0x344>
    1786:	e7ff      	b.n	1788 <_ZN4core4sync6atomic23atomic_compare_exchange17h00bdad4426f09d8aE+0xe4>
    1788:	9802      	ldr	r0, [sp, #8]
    178a:	2802      	cmp	r0, #2
    178c:	f000 8144 	beq.w	1a18 <_ZN4core4sync6atomic23atomic_compare_exchange17h00bdad4426f09d8aE+0x374>
    1790:	e7ff      	b.n	1792 <_ZN4core4sync6atomic23atomic_compare_exchange17h00bdad4426f09d8aE+0xee>
    1792:	9802      	ldr	r0, [sp, #8]
    1794:	2804      	cmp	r0, #4
    1796:	f000 8157 	beq.w	1a48 <_ZN4core4sync6atomic23atomic_compare_exchange17h00bdad4426f09d8aE+0x3a4>
    179a:	e7ff      	b.n	179c <_ZN4core4sync6atomic23atomic_compare_exchange17h00bdad4426f09d8aE+0xf8>
    179c:	980a      	ldr	r0, [sp, #40]	@ 0x28
    179e:	b2c0      	uxtb	r0, r0
    17a0:	2801      	cmp	r0, #1
    17a2:	f000 8177 	beq.w	1a94 <_ZN4core4sync6atomic23atomic_compare_exchange17h00bdad4426f09d8aE+0x3f0>
    17a6:	e18f      	b.n	1ac8 <_ZN4core4sync6atomic23atomic_compare_exchange17h00bdad4426f09d8aE+0x424>
            (Relaxed, Relaxed) => intrinsics::atomic_cxchg_relaxed_relaxed(dst, old, new),
    17a8:	9808      	ldr	r0, [sp, #32]
    17aa:	9b09      	ldr	r3, [sp, #36]	@ 0x24
    17ac:	f8dd c01c 	ldr.w	ip, [sp, #28]
    17b0:	e853 1f00 	ldrex	r1, [r3]
    17b4:	4501      	cmp	r1, r0
    17b6:	d103      	bne.n	17c0 <_ZN4core4sync6atomic23atomic_compare_exchange17h00bdad4426f09d8aE+0x11c>
    17b8:	e843 c200 	strex	r2, ip, [r3]
    17bc:	2a00      	cmp	r2, #0
    17be:	d1f7      	bne.n	17b0 <_ZN4core4sync6atomic23atomic_compare_exchange17h00bdad4426f09d8aE+0x10c>
    17c0:	1a08      	subs	r0, r1, r0
    17c2:	fab0 f080 	clz	r0, r0
    17c6:	0940      	lsrs	r0, r0, #5
    17c8:	910e      	str	r1, [sp, #56]	@ 0x38
    17ca:	f88d 003c 	strb.w	r0, [sp, #60]	@ 0x3c
    17ce:	e02d      	b.n	182c <_ZN4core4sync6atomic23atomic_compare_exchange17h00bdad4426f09d8aE+0x188>
            (Relaxed, Acquire) => intrinsics::atomic_cxchg_relaxed_acquire(dst, old, new),
    17d0:	9808      	ldr	r0, [sp, #32]
    17d2:	9b09      	ldr	r3, [sp, #36]	@ 0x24
    17d4:	f8dd c01c 	ldr.w	ip, [sp, #28]
    17d8:	e853 1f00 	ldrex	r1, [r3]
    17dc:	4501      	cmp	r1, r0
    17de:	d103      	bne.n	17e8 <_ZN4core4sync6atomic23atomic_compare_exchange17h00bdad4426f09d8aE+0x144>
    17e0:	e843 c200 	strex	r2, ip, [r3]
    17e4:	2a00      	cmp	r2, #0
    17e6:	d1f7      	bne.n	17d8 <_ZN4core4sync6atomic23atomic_compare_exchange17h00bdad4426f09d8aE+0x134>
    17e8:	1a08      	subs	r0, r1, r0
    17ea:	fab0 f080 	clz	r0, r0
    17ee:	0940      	lsrs	r0, r0, #5
    17f0:	f3bf 8f5f 	dmb	sy
    17f4:	910e      	str	r1, [sp, #56]	@ 0x38
    17f6:	f88d 003c 	strb.w	r0, [sp, #60]	@ 0x3c
    17fa:	e017      	b.n	182c <_ZN4core4sync6atomic23atomic_compare_exchange17h00bdad4426f09d8aE+0x188>
            (Relaxed, SeqCst) => intrinsics::atomic_cxchg_relaxed_seqcst(dst, old, new),
    17fc:	9808      	ldr	r0, [sp, #32]
    17fe:	9b09      	ldr	r3, [sp, #36]	@ 0x24
    1800:	f8dd c01c 	ldr.w	ip, [sp, #28]
    1804:	f3bf 8f5f 	dmb	sy
    1808:	e853 1f00 	ldrex	r1, [r3]
    180c:	4501      	cmp	r1, r0
    180e:	d103      	bne.n	1818 <_ZN4core4sync6atomic23atomic_compare_exchange17h00bdad4426f09d8aE+0x174>
    1810:	e843 c200 	strex	r2, ip, [r3]
    1814:	2a00      	cmp	r2, #0
    1816:	d1f7      	bne.n	1808 <_ZN4core4sync6atomic23atomic_compare_exchange17h00bdad4426f09d8aE+0x164>
    1818:	1a08      	subs	r0, r1, r0
    181a:	fab0 f080 	clz	r0, r0
    181e:	0940      	lsrs	r0, r0, #5
    1820:	f3bf 8f5f 	dmb	sy
    1824:	910e      	str	r1, [sp, #56]	@ 0x38
    1826:	f88d 003c 	strb.w	r0, [sp, #60]	@ 0x3c
    182a:	e7ff      	b.n	182c <_ZN4core4sync6atomic23atomic_compare_exchange17h00bdad4426f09d8aE+0x188>
    let (val, ok) = unsafe {
    182c:	980e      	ldr	r0, [sp, #56]	@ 0x38
    182e:	9001      	str	r0, [sp, #4]
    1830:	9022      	str	r0, [sp, #136]	@ 0x88
    1832:	f89d 003c 	ldrb.w	r0, [sp, #60]	@ 0x3c
    1836:	f807 0c01 	strb.w	r0, [r7, #-1]
            (SeqCst, SeqCst) => intrinsics::atomic_cxchg_seqcst_seqcst(dst, old, new),
            (_, AcqRel) => panic!("there is no such thing as an acquire-release failure ordering"),
            (_, Release) => panic!("there is no such thing as a release failure ordering"),
        }
    };
    if ok { Ok(val) } else { Err(val) }
    183a:	07c0      	lsls	r0, r0, #31
    183c:	2800      	cmp	r0, #0
    183e:	f040 8120 	bne.w	1a82 <_ZN4core4sync6atomic23atomic_compare_exchange17h00bdad4426f09d8aE+0x3de>
    1842:	e119      	b.n	1a78 <_ZN4core4sync6atomic23atomic_compare_exchange17h00bdad4426f09d8aE+0x3d4>
            (Release, Relaxed) => intrinsics::atomic_cxchg_release_relaxed(dst, old, new),
    1844:	9808      	ldr	r0, [sp, #32]
    1846:	9b09      	ldr	r3, [sp, #36]	@ 0x24
    1848:	f8dd c01c 	ldr.w	ip, [sp, #28]
    184c:	f3bf 8f5f 	dmb	sy
    1850:	e853 1f00 	ldrex	r1, [r3]
    1854:	4501      	cmp	r1, r0
    1856:	d103      	bne.n	1860 <_ZN4core4sync6atomic23atomic_compare_exchange17h00bdad4426f09d8aE+0x1bc>
    1858:	e843 c200 	strex	r2, ip, [r3]
    185c:	2a00      	cmp	r2, #0
    185e:	d1f7      	bne.n	1850 <_ZN4core4sync6atomic23atomic_compare_exchange17h00bdad4426f09d8aE+0x1ac>
    1860:	1a08      	subs	r0, r1, r0
    1862:	fab0 f080 	clz	r0, r0
    1866:	0940      	lsrs	r0, r0, #5
    1868:	910e      	str	r1, [sp, #56]	@ 0x38
    186a:	f88d 003c 	strb.w	r0, [sp, #60]	@ 0x3c
    186e:	e7dd      	b.n	182c <_ZN4core4sync6atomic23atomic_compare_exchange17h00bdad4426f09d8aE+0x188>
            (Release, Acquire) => intrinsics::atomic_cxchg_release_acquire(dst, old, new),
    1870:	9808      	ldr	r0, [sp, #32]
    1872:	9b09      	ldr	r3, [sp, #36]	@ 0x24
    1874:	f8dd c01c 	ldr.w	ip, [sp, #28]
    1878:	f3bf 8f5f 	dmb	sy
    187c:	e853 1f00 	ldrex	r1, [r3]
    1880:	4501      	cmp	r1, r0
    1882:	d103      	bne.n	188c <_ZN4core4sync6atomic23atomic_compare_exchange17h00bdad4426f09d8aE+0x1e8>
    1884:	e843 c200 	strex	r2, ip, [r3]
    1888:	2a00      	cmp	r2, #0
    188a:	d1f7      	bne.n	187c <_ZN4core4sync6atomic23atomic_compare_exchange17h00bdad4426f09d8aE+0x1d8>
    188c:	1a08      	subs	r0, r1, r0
    188e:	fab0 f080 	clz	r0, r0
    1892:	0940      	lsrs	r0, r0, #5
    1894:	f3bf 8f5f 	dmb	sy
    1898:	910e      	str	r1, [sp, #56]	@ 0x38
    189a:	f88d 003c 	strb.w	r0, [sp, #60]	@ 0x3c
    189e:	e7c5      	b.n	182c <_ZN4core4sync6atomic23atomic_compare_exchange17h00bdad4426f09d8aE+0x188>
            (Release, SeqCst) => intrinsics::atomic_cxchg_release_seqcst(dst, old, new),
    18a0:	9808      	ldr	r0, [sp, #32]
    18a2:	9b09      	ldr	r3, [sp, #36]	@ 0x24
    18a4:	f8dd c01c 	ldr.w	ip, [sp, #28]
    18a8:	f3bf 8f5f 	dmb	sy
    18ac:	e853 1f00 	ldrex	r1, [r3]
    18b0:	4501      	cmp	r1, r0
    18b2:	d103      	bne.n	18bc <_ZN4core4sync6atomic23atomic_compare_exchange17h00bdad4426f09d8aE+0x218>
    18b4:	e843 c200 	strex	r2, ip, [r3]
    18b8:	2a00      	cmp	r2, #0
    18ba:	d1f7      	bne.n	18ac <_ZN4core4sync6atomic23atomic_compare_exchange17h00bdad4426f09d8aE+0x208>
    18bc:	1a08      	subs	r0, r1, r0
    18be:	fab0 f080 	clz	r0, r0
    18c2:	0940      	lsrs	r0, r0, #5
    18c4:	f3bf 8f5f 	dmb	sy
    18c8:	910e      	str	r1, [sp, #56]	@ 0x38
    18ca:	f88d 003c 	strb.w	r0, [sp, #60]	@ 0x3c
    18ce:	e7ad      	b.n	182c <_ZN4core4sync6atomic23atomic_compare_exchange17h00bdad4426f09d8aE+0x188>
            (Acquire, Relaxed) => intrinsics::atomic_cxchg_acquire_relaxed(dst, old, new),
    18d0:	9808      	ldr	r0, [sp, #32]
    18d2:	9b09      	ldr	r3, [sp, #36]	@ 0x24
    18d4:	f8dd c01c 	ldr.w	ip, [sp, #28]
    18d8:	e853 1f00 	ldrex	r1, [r3]
    18dc:	4501      	cmp	r1, r0
    18de:	d103      	bne.n	18e8 <_ZN4core4sync6atomic23atomic_compare_exchange17h00bdad4426f09d8aE+0x244>
    18e0:	e843 c200 	strex	r2, ip, [r3]
    18e4:	2a00      	cmp	r2, #0
    18e6:	d1f7      	bne.n	18d8 <_ZN4core4sync6atomic23atomic_compare_exchange17h00bdad4426f09d8aE+0x234>
    18e8:	1a08      	subs	r0, r1, r0
    18ea:	fab0 f080 	clz	r0, r0
    18ee:	0940      	lsrs	r0, r0, #5
    18f0:	f3bf 8f5f 	dmb	sy
    18f4:	910e      	str	r1, [sp, #56]	@ 0x38
    18f6:	f88d 003c 	strb.w	r0, [sp, #60]	@ 0x3c
    18fa:	e797      	b.n	182c <_ZN4core4sync6atomic23atomic_compare_exchange17h00bdad4426f09d8aE+0x188>
            (Acquire, Acquire) => intrinsics::atomic_cxchg_acquire_acquire(dst, old, new),
    18fc:	9808      	ldr	r0, [sp, #32]
    18fe:	9b09      	ldr	r3, [sp, #36]	@ 0x24
    1900:	f8dd c01c 	ldr.w	ip, [sp, #28]
    1904:	e853 1f00 	ldrex	r1, [r3]
    1908:	4501      	cmp	r1, r0
    190a:	d103      	bne.n	1914 <_ZN4core4sync6atomic23atomic_compare_exchange17h00bdad4426f09d8aE+0x270>
    190c:	e843 c200 	strex	r2, ip, [r3]
    1910:	2a00      	cmp	r2, #0
    1912:	d1f7      	bne.n	1904 <_ZN4core4sync6atomic23atomic_compare_exchange17h00bdad4426f09d8aE+0x260>
    1914:	1a08      	subs	r0, r1, r0
    1916:	fab0 f080 	clz	r0, r0
    191a:	0940      	lsrs	r0, r0, #5
    191c:	f3bf 8f5f 	dmb	sy
    1920:	910e      	str	r1, [sp, #56]	@ 0x38
    1922:	f88d 003c 	strb.w	r0, [sp, #60]	@ 0x3c
    1926:	e781      	b.n	182c <_ZN4core4sync6atomic23atomic_compare_exchange17h00bdad4426f09d8aE+0x188>
            (Acquire, SeqCst) => intrinsics::atomic_cxchg_acquire_seqcst(dst, old, new),
    1928:	9808      	ldr	r0, [sp, #32]
    192a:	9b09      	ldr	r3, [sp, #36]	@ 0x24
    192c:	f8dd c01c 	ldr.w	ip, [sp, #28]
    1930:	f3bf 8f5f 	dmb	sy
    1934:	e853 1f00 	ldrex	r1, [r3]
    1938:	4501      	cmp	r1, r0
    193a:	d103      	bne.n	1944 <_ZN4core4sync6atomic23atomic_compare_exchange17h00bdad4426f09d8aE+0x2a0>
    193c:	e843 c200 	strex	r2, ip, [r3]
    1940:	2a00      	cmp	r2, #0
    1942:	d1f7      	bne.n	1934 <_ZN4core4sync6atomic23atomic_compare_exchange17h00bdad4426f09d8aE+0x290>
    1944:	1a08      	subs	r0, r1, r0
    1946:	fab0 f080 	clz	r0, r0
    194a:	0940      	lsrs	r0, r0, #5
    194c:	f3bf 8f5f 	dmb	sy
    1950:	910e      	str	r1, [sp, #56]	@ 0x38
    1952:	f88d 003c 	strb.w	r0, [sp, #60]	@ 0x3c
    1956:	e769      	b.n	182c <_ZN4core4sync6atomic23atomic_compare_exchange17h00bdad4426f09d8aE+0x188>
            (AcqRel, Relaxed) => intrinsics::atomic_cxchg_acqrel_relaxed(dst, old, new),
    1958:	9808      	ldr	r0, [sp, #32]
    195a:	9b09      	ldr	r3, [sp, #36]	@ 0x24
    195c:	f8dd c01c 	ldr.w	ip, [sp, #28]
    1960:	f3bf 8f5f 	dmb	sy
    1964:	e853 1f00 	ldrex	r1, [r3]
    1968:	4501      	cmp	r1, r0
    196a:	d103      	bne.n	1974 <_ZN4core4sync6atomic23atomic_compare_exchange17h00bdad4426f09d8aE+0x2d0>
    196c:	e843 c200 	strex	r2, ip, [r3]
    1970:	2a00      	cmp	r2, #0
    1972:	d1f7      	bne.n	1964 <_ZN4core4sync6atomic23atomic_compare_exchange17h00bdad4426f09d8aE+0x2c0>
    1974:	1a08      	subs	r0, r1, r0
    1976:	fab0 f080 	clz	r0, r0
    197a:	0940      	lsrs	r0, r0, #5
    197c:	f3bf 8f5f 	dmb	sy
    1980:	910e      	str	r1, [sp, #56]	@ 0x38
    1982:	f88d 003c 	strb.w	r0, [sp, #60]	@ 0x3c
    1986:	e751      	b.n	182c <_ZN4core4sync6atomic23atomic_compare_exchange17h00bdad4426f09d8aE+0x188>
            (AcqRel, Acquire) => intrinsics::atomic_cxchg_acqrel_acquire(dst, old, new),
    1988:	9808      	ldr	r0, [sp, #32]
    198a:	9b09      	ldr	r3, [sp, #36]	@ 0x24
    198c:	f8dd c01c 	ldr.w	ip, [sp, #28]
    1990:	f3bf 8f5f 	dmb	sy
    1994:	e853 1f00 	ldrex	r1, [r3]
    1998:	4501      	cmp	r1, r0
    199a:	d103      	bne.n	19a4 <_ZN4core4sync6atomic23atomic_compare_exchange17h00bdad4426f09d8aE+0x300>
    199c:	e843 c200 	strex	r2, ip, [r3]
    19a0:	2a00      	cmp	r2, #0
    19a2:	d1f7      	bne.n	1994 <_ZN4core4sync6atomic23atomic_compare_exchange17h00bdad4426f09d8aE+0x2f0>
    19a4:	1a08      	subs	r0, r1, r0
    19a6:	fab0 f080 	clz	r0, r0
    19aa:	0940      	lsrs	r0, r0, #5
    19ac:	f3bf 8f5f 	dmb	sy
    19b0:	910e      	str	r1, [sp, #56]	@ 0x38
    19b2:	f88d 003c 	strb.w	r0, [sp, #60]	@ 0x3c
    19b6:	e739      	b.n	182c <_ZN4core4sync6atomic23atomic_compare_exchange17h00bdad4426f09d8aE+0x188>
            (AcqRel, SeqCst) => intrinsics::atomic_cxchg_acqrel_seqcst(dst, old, new),
    19b8:	9808      	ldr	r0, [sp, #32]
    19ba:	9b09      	ldr	r3, [sp, #36]	@ 0x24
    19bc:	f8dd c01c 	ldr.w	ip, [sp, #28]
    19c0:	f3bf 8f5f 	dmb	sy
    19c4:	e853 1f00 	ldrex	r1, [r3]
    19c8:	4501      	cmp	r1, r0
    19ca:	d103      	bne.n	19d4 <_ZN4core4sync6atomic23atomic_compare_exchange17h00bdad4426f09d8aE+0x330>
    19cc:	e843 c200 	strex	r2, ip, [r3]
    19d0:	2a00      	cmp	r2, #0
    19d2:	d1f7      	bne.n	19c4 <_ZN4core4sync6atomic23atomic_compare_exchange17h00bdad4426f09d8aE+0x320>
    19d4:	1a08      	subs	r0, r1, r0
    19d6:	fab0 f080 	clz	r0, r0
    19da:	0940      	lsrs	r0, r0, #5
    19dc:	f3bf 8f5f 	dmb	sy
    19e0:	910e      	str	r1, [sp, #56]	@ 0x38
    19e2:	f88d 003c 	strb.w	r0, [sp, #60]	@ 0x3c
    19e6:	e721      	b.n	182c <_ZN4core4sync6atomic23atomic_compare_exchange17h00bdad4426f09d8aE+0x188>
            (SeqCst, Relaxed) => intrinsics::atomic_cxchg_seqcst_relaxed(dst, old, new),
    19e8:	9808      	ldr	r0, [sp, #32]
    19ea:	9b09      	ldr	r3, [sp, #36]	@ 0x24
    19ec:	f8dd c01c 	ldr.w	ip, [sp, #28]
    19f0:	f3bf 8f5f 	dmb	sy
    19f4:	e853 1f00 	ldrex	r1, [r3]
    19f8:	4501      	cmp	r1, r0
    19fa:	d103      	bne.n	1a04 <_ZN4core4sync6atomic23atomic_compare_exchange17h00bdad4426f09d8aE+0x360>
    19fc:	e843 c200 	strex	r2, ip, [r3]
    1a00:	2a00      	cmp	r2, #0
    1a02:	d1f7      	bne.n	19f4 <_ZN4core4sync6atomic23atomic_compare_exchange17h00bdad4426f09d8aE+0x350>
    1a04:	1a08      	subs	r0, r1, r0
    1a06:	fab0 f080 	clz	r0, r0
    1a0a:	0940      	lsrs	r0, r0, #5
    1a0c:	f3bf 8f5f 	dmb	sy
    1a10:	910e      	str	r1, [sp, #56]	@ 0x38
    1a12:	f88d 003c 	strb.w	r0, [sp, #60]	@ 0x3c
    1a16:	e709      	b.n	182c <_ZN4core4sync6atomic23atomic_compare_exchange17h00bdad4426f09d8aE+0x188>
            (SeqCst, Acquire) => intrinsics::atomic_cxchg_seqcst_acquire(dst, old, new),
    1a18:	9808      	ldr	r0, [sp, #32]
    1a1a:	9b09      	ldr	r3, [sp, #36]	@ 0x24
    1a1c:	f8dd c01c 	ldr.w	ip, [sp, #28]
    1a20:	f3bf 8f5f 	dmb	sy
    1a24:	e853 1f00 	ldrex	r1, [r3]
    1a28:	4501      	cmp	r1, r0
    1a2a:	d103      	bne.n	1a34 <_ZN4core4sync6atomic23atomic_compare_exchange17h00bdad4426f09d8aE+0x390>
    1a2c:	e843 c200 	strex	r2, ip, [r3]
    1a30:	2a00      	cmp	r2, #0
    1a32:	d1f7      	bne.n	1a24 <_ZN4core4sync6atomic23atomic_compare_exchange17h00bdad4426f09d8aE+0x380>
    1a34:	1a08      	subs	r0, r1, r0
    1a36:	fab0 f080 	clz	r0, r0
    1a3a:	0940      	lsrs	r0, r0, #5
    1a3c:	f3bf 8f5f 	dmb	sy
    1a40:	910e      	str	r1, [sp, #56]	@ 0x38
    1a42:	f88d 003c 	strb.w	r0, [sp, #60]	@ 0x3c
    1a46:	e6f1      	b.n	182c <_ZN4core4sync6atomic23atomic_compare_exchange17h00bdad4426f09d8aE+0x188>
            (SeqCst, SeqCst) => intrinsics::atomic_cxchg_seqcst_seqcst(dst, old, new),
    1a48:	9808      	ldr	r0, [sp, #32]
    1a4a:	9b09      	ldr	r3, [sp, #36]	@ 0x24
    1a4c:	f8dd c01c 	ldr.w	ip, [sp, #28]
    1a50:	f3bf 8f5f 	dmb	sy
    1a54:	e853 1f00 	ldrex	r1, [r3]
    1a58:	4501      	cmp	r1, r0
    1a5a:	d103      	bne.n	1a64 <_ZN4core4sync6atomic23atomic_compare_exchange17h00bdad4426f09d8aE+0x3c0>
    1a5c:	e843 c200 	strex	r2, ip, [r3]
    1a60:	2a00      	cmp	r2, #0
    1a62:	d1f7      	bne.n	1a54 <_ZN4core4sync6atomic23atomic_compare_exchange17h00bdad4426f09d8aE+0x3b0>
    1a64:	1a08      	subs	r0, r1, r0
    1a66:	fab0 f080 	clz	r0, r0
    1a6a:	0940      	lsrs	r0, r0, #5
    1a6c:	f3bf 8f5f 	dmb	sy
    1a70:	910e      	str	r1, [sp, #56]	@ 0x38
    1a72:	f88d 003c 	strb.w	r0, [sp, #60]	@ 0x3c
    1a76:	e6d9      	b.n	182c <_ZN4core4sync6atomic23atomic_compare_exchange17h00bdad4426f09d8aE+0x188>
    if ok { Ok(val) } else { Err(val) }
    1a78:	9801      	ldr	r0, [sp, #4]
    1a7a:	900d      	str	r0, [sp, #52]	@ 0x34
    1a7c:	2001      	movs	r0, #1
    1a7e:	900c      	str	r0, [sp, #48]	@ 0x30
    1a80:	e004      	b.n	1a8c <_ZN4core4sync6atomic23atomic_compare_exchange17h00bdad4426f09d8aE+0x3e8>
    1a82:	9801      	ldr	r0, [sp, #4]
    1a84:	900d      	str	r0, [sp, #52]	@ 0x34
    1a86:	2000      	movs	r0, #0
    1a88:	900c      	str	r0, [sp, #48]	@ 0x30
    1a8a:	e7ff      	b.n	1a8c <_ZN4core4sync6atomic23atomic_compare_exchange17h00bdad4426f09d8aE+0x3e8>
}
    1a8c:	980c      	ldr	r0, [sp, #48]	@ 0x30
    1a8e:	990d      	ldr	r1, [sp, #52]	@ 0x34
    1a90:	b024      	add	sp, #144	@ 0x90
    1a92:	bd80      	pop	{r7, pc}
        const { assert!(N <= 1) };
        Arguments { pieces, fmt: None, args: &[] }
    1a94:	f64b 60e8 	movw	r0, #48872	@ 0xbee8
    1a98:	f2c0 0000 	movt	r0, #0
    1a9c:	9016      	str	r0, [sp, #88]	@ 0x58
    1a9e:	2001      	movs	r0, #1
    1aa0:	9017      	str	r0, [sp, #92]	@ 0x5c
    1aa2:	f64b 7048 	movw	r0, #48968	@ 0xbf48
    1aa6:	f2c0 0000 	movt	r0, #0
    1aaa:	6801      	ldr	r1, [r0, #0]
    1aac:	6840      	ldr	r0, [r0, #4]
    1aae:	911a      	str	r1, [sp, #104]	@ 0x68
    1ab0:	901b      	str	r0, [sp, #108]	@ 0x6c
    1ab2:	2004      	movs	r0, #4
    1ab4:	9018      	str	r0, [sp, #96]	@ 0x60
    1ab6:	2000      	movs	r0, #0
    1ab8:	9019      	str	r0, [sp, #100]	@ 0x64
            (_, Release) => panic!("there is no such thing as a release failure ordering"),
    1aba:	f64b 71c8 	movw	r1, #49096	@ 0xbfc8
    1abe:	f2c0 0100 	movt	r1, #0
    1ac2:	a816      	add	r0, sp, #88	@ 0x58
    1ac4:	f008 fcb2 	bl	a42c <_ZN4core9panicking9panic_fmt17h24455ea0bcd5a24aE>
    1ac8:	f64b 7030 	movw	r0, #48944	@ 0xbf30
    1acc:	f2c0 0000 	movt	r0, #0
    1ad0:	9010      	str	r0, [sp, #64]	@ 0x40
    1ad2:	2001      	movs	r0, #1
    1ad4:	9011      	str	r0, [sp, #68]	@ 0x44
    1ad6:	f64b 7048 	movw	r0, #48968	@ 0xbf48
    1ada:	f2c0 0000 	movt	r0, #0
    1ade:	6801      	ldr	r1, [r0, #0]
    1ae0:	6840      	ldr	r0, [r0, #4]
    1ae2:	9114      	str	r1, [sp, #80]	@ 0x50
    1ae4:	9015      	str	r0, [sp, #84]	@ 0x54
    1ae6:	2004      	movs	r0, #4
    1ae8:	9012      	str	r0, [sp, #72]	@ 0x48
    1aea:	2000      	movs	r0, #0
    1aec:	9013      	str	r0, [sp, #76]	@ 0x4c
            (_, AcqRel) => panic!("there is no such thing as an acquire-release failure ordering"),
    1aee:	f64b 71d8 	movw	r1, #49112	@ 0xbfd8
    1af2:	f2c0 0100 	movt	r1, #0
    1af6:	a810      	add	r0, sp, #64	@ 0x40
    1af8:	f008 fc98 	bl	a42c <_ZN4core9panicking9panic_fmt17h24455ea0bcd5a24aE>

00001afc <_ZN90_$LT$microbit_async_display_example..board..Microbit$u20$as$u20$core..default..Default$GT$7default17h038694f592831baeE>:
    ///
    /// # Example
    /// ```no_run
    /// let board = Microbit::default();
    /// ```
    fn default() -> Self {
    1afc:	b580      	push	{r7, lr}
    1afe:	466f      	mov	r7, sp
    1b00:	b084      	sub	sp, #16
        Self::new(Default::default())
    1b02:	9000      	str	r0, [sp, #0]
    1b04:	1fb8      	subs	r0, r7, #6
    1b06:	9001      	str	r0, [sp, #4]
    1b08:	f004 fa0f 	bl	5f2a <_ZN70_$LT$embassy_nrf..config..Config$u20$as$u20$core..default..Default$GT$7default17hf5f331165a1fac15E>
    1b0c:	9800      	ldr	r0, [sp, #0]
    1b0e:	9901      	ldr	r1, [sp, #4]
    1b10:	f000 f802 	bl	1b18 <_ZN30microbit_async_display_example5board8Microbit3new17h648d50a28a9942e3E>
    }
    1b14:	b004      	add	sp, #16
    1b16:	bd80      	pop	{r7, pc}

00001b18 <_ZN30microbit_async_display_example5board8Microbit3new17h648d50a28a9942e3E>:
    /// ```no_run
    /// let mut config = embassy_nrf::config::Config::default();
    /// config.hfclk_source = embassy_nrf::config::HfclkSource::Internal;
    /// let board = Microbit::new(config);
    /// ```
    pub fn new(config: embassy_nrf::config::Config) -> Self {
    1b18:	b5f0      	push	{r4, r5, r6, r7, lr}
    1b1a:	af03      	add	r7, sp, #12
    1b1c:	f84d 8d04 	str.w	r8, [sp, #-4]!
    1b20:	b0a0      	sub	sp, #128	@ 0x80
    1b22:	9101      	str	r1, [sp, #4]
    1b24:	4601      	mov	r1, r0
        let p = embassy_nrf::init(config);
    1b26:	9801      	ldr	r0, [sp, #4]
    1b28:	910d      	str	r1, [sp, #52]	@ 0x34
    1b2a:	f002 fb3f 	bl	41ac <_ZN11embassy_nrf4init17hc121c2a202dc6d4dE>
        // LED Matrix
        let rows = [
            output_pin(p.P0_21.degrade()),
    1b2e:	f003 f8d7 	bl	4ce0 <_ZN11embassy_nrf4gpio3Pin7degrade17hb30ccf8511e366e5E>
    1b32:	f000 f87f 	bl	1c34 <_ZN30microbit_async_display_example5board10output_pin17hb5e4c2b744808fb5E>
            output_pin(p.P0_22.degrade()),
    1b36:	9002      	str	r0, [sp, #8]
    1b38:	f003 f8aa 	bl	4c90 <_ZN11embassy_nrf4gpio3Pin7degrade17h3ad8195b8553f21dE>
    1b3c:	f000 f87a 	bl	1c34 <_ZN30microbit_async_display_example5board10output_pin17hb5e4c2b744808fb5E>
            output_pin(p.P0_15.degrade()),
    1b40:	9003      	str	r0, [sp, #12]
    1b42:	f003 f885 	bl	4c50 <_ZN11embassy_nrf4gpio3Pin7degrade17h046f9cf7caa18818E>
    1b46:	f000 f875 	bl	1c34 <_ZN30microbit_async_display_example5board10output_pin17hb5e4c2b744808fb5E>
            output_pin(p.P0_24.degrade()),
    1b4a:	9004      	str	r0, [sp, #16]
    1b4c:	f003 f898 	bl	4c80 <_ZN11embassy_nrf4gpio3Pin7degrade17h38f6c5df68e9b4b2E>
    1b50:	f000 f870 	bl	1c34 <_ZN30microbit_async_display_example5board10output_pin17hb5e4c2b744808fb5E>
            output_pin(p.P0_19.degrade()),
    1b54:	9005      	str	r0, [sp, #20]
    1b56:	f003 f8a3 	bl	4ca0 <_ZN11embassy_nrf4gpio3Pin7degrade17h42afd42e9c0dc241E>
    1b5a:	f000 f86b 	bl	1c34 <_ZN30microbit_async_display_example5board10output_pin17hb5e4c2b744808fb5E>
    1b5e:	f8dd c008 	ldr.w	ip, [sp, #8]
    1b62:	9b03      	ldr	r3, [sp, #12]
    1b64:	9a04      	ldr	r2, [sp, #16]
    1b66:	9905      	ldr	r1, [sp, #20]
        let rows = [
    1b68:	f807 cc56 	strb.w	ip, [r7, #-86]
    1b6c:	f807 3c55 	strb.w	r3, [r7, #-85]
    1b70:	f807 2c54 	strb.w	r2, [r7, #-84]
    1b74:	f807 1c53 	strb.w	r1, [r7, #-83]
    1b78:	f807 0c52 	strb.w	r0, [r7, #-82]
        ];

        let cols = [
            output_pin(p.P0_28.degrade()),
    1b7c:	f003 f8b8 	bl	4cf0 <_ZN11embassy_nrf4gpio3Pin7degrade17hd389a42720d795eeE>
    1b80:	f000 f858 	bl	1c34 <_ZN30microbit_async_display_example5board10output_pin17hb5e4c2b744808fb5E>
            output_pin(p.P0_11.degrade()),
    1b84:	9006      	str	r0, [sp, #24]
    1b86:	f003 f86b 	bl	4c60 <_ZN11embassy_nrf4gpio3Pin7degrade17h263a5ced7163a376E>
    1b8a:	f000 f853 	bl	1c34 <_ZN30microbit_async_display_example5board10output_pin17hb5e4c2b744808fb5E>
            output_pin(p.P0_31.degrade()),
    1b8e:	9007      	str	r0, [sp, #28]
    1b90:	f003 f89e 	bl	4cd0 <_ZN11embassy_nrf4gpio3Pin7degrade17ha383c0f0d170054eE>
    1b94:	f000 f84e 	bl	1c34 <_ZN30microbit_async_display_example5board10output_pin17hb5e4c2b744808fb5E>
            output_pin(p.P1_05.degrade()),
    1b98:	9008      	str	r0, [sp, #32]
    1b9a:	f003 f891 	bl	4cc0 <_ZN11embassy_nrf4gpio3Pin7degrade17h79bd1e0fe83ad1bcE>
    1b9e:	f000 f849 	bl	1c34 <_ZN30microbit_async_display_example5board10output_pin17hb5e4c2b744808fb5E>
            output_pin(p.P0_30.degrade()),
    1ba2:	9009      	str	r0, [sp, #36]	@ 0x24
    1ba4:	f003 f864 	bl	4c70 <_ZN11embassy_nrf4gpio3Pin7degrade17h28ebe9bae66a1dd3E>
    1ba8:	f000 f844 	bl	1c34 <_ZN30microbit_async_display_example5board10output_pin17hb5e4c2b744808fb5E>
    1bac:	f8dd c018 	ldr.w	ip, [sp, #24]
    1bb0:	9b07      	ldr	r3, [sp, #28]
    1bb2:	9a08      	ldr	r2, [sp, #32]
    1bb4:	9909      	ldr	r1, [sp, #36]	@ 0x24
        let cols = [
    1bb6:	f807 cc51 	strb.w	ip, [r7, #-81]
    1bba:	f807 3c50 	strb.w	r3, [r7, #-80]
    1bbe:	f807 2c4f 	strb.w	r2, [r7, #-79]
    1bc2:	f807 1c4e 	strb.w	r1, [r7, #-78]
    1bc6:	f807 0c4d 	strb.w	r0, [r7, #-77]
    1bca:	a811      	add	r0, sp, #68	@ 0x44
    1bcc:	900b      	str	r0, [sp, #44]	@ 0x2c
    1bce:	f1a7 0156 	sub.w	r1, r7, #86	@ 0x56
    1bd2:	f1a7 0251 	sub.w	r2, r7, #81	@ 0x51
        ];

        Self {
            display: LedMatrixDriver::new(rows, cols),
    1bd6:	f7fe ff56 	bl	a86 <_ZN30microbit_async_display_example7display26LedMatrix$LT$P$C$_$C$_$GT$3new17hf46a222811fa3cf4E>
            btn_a: Input::new(p.P0_14.degrade(), Pull::None),
    1bda:	f003 f869 	bl	4cb0 <_ZN11embassy_nrf4gpio3Pin7degrade17h47017b31f21f41a4E>
    1bde:	2100      	movs	r1, #0
    1be0:	910a      	str	r1, [sp, #40]	@ 0x28
    1be2:	f807 1c13 	strb.w	r1, [r7, #-19]
    1be6:	f817 1c13 	ldrb.w	r1, [r7, #-19]
    1bea:	f001 fa49 	bl	3080 <_ZN11embassy_nrf4gpio5Input3new17h1bfec48e2faf3f52E>
            btn_b: Input::new(p.P0_23.degrade(), Pull::None),
    1bee:	900c      	str	r0, [sp, #48]	@ 0x30
    1bf0:	f003 f826 	bl	4c40 <_ZN11embassy_nrf4gpio3Pin7degrade17h01c132438600ad08E>
    1bf4:	990a      	ldr	r1, [sp, #40]	@ 0x28
    1bf6:	f807 1c12 	strb.w	r1, [r7, #-18]
    1bfa:	f817 1c12 	ldrb.w	r1, [r7, #-18]
    1bfe:	f001 fa3f 	bl	3080 <_ZN11embassy_nrf4gpio5Input3new17h1bfec48e2faf3f52E>
    1c02:	f8dd c02c 	ldr.w	ip, [sp, #44]	@ 0x2c
    1c06:	9a0c      	ldr	r2, [sp, #48]	@ 0x30
    1c08:	990d      	ldr	r1, [sp, #52]	@ 0x34
        Self {
    1c0a:	460b      	mov	r3, r1
    1c0c:	e8bc 4070 	ldmia.w	ip!, {r4, r5, r6, lr}
    1c10:	e8a3 4070 	stmia.w	r3!, {r4, r5, r6, lr}
    1c14:	e8bc 4170 	ldmia.w	ip!, {r4, r5, r6, r8, lr}
    1c18:	e8a3 4170 	stmia.w	r3!, {r4, r5, r6, r8, lr}
    1c1c:	e89c 4170 	ldmia.w	ip, {r4, r5, r6, r8, lr}
    1c20:	e883 4170 	stmia.w	r3, {r4, r5, r6, r8, lr}
    1c24:	f881 2038 	strb.w	r2, [r1, #56]	@ 0x38
    1c28:	f881 0039 	strb.w	r0, [r1, #57]	@ 0x39
            pwm2: p.PWM2,
            pwm3: p.PWM3,
            rng: p.RNG,
            saadc: p.SAADC,
        }
    }
    1c2c:	b020      	add	sp, #128	@ 0x80
    1c2e:	f85d 8b04 	ldr.w	r8, [sp], #4
    1c32:	bdf0      	pop	{r4, r5, r6, r7, pc}

00001c34 <_ZN30microbit_async_display_example5board10output_pin17hb5e4c2b744808fb5E>:
/// # Returns
/// A configured `Output` pin ready for use
///
/// # Usage
/// This function is used internally to configure the LED matrix row and column pins.
fn output_pin(pin: AnyPin) -> Output<'static> {
    1c34:	b580      	push	{r7, lr}
    1c36:	466f      	mov	r7, sp
    1c38:	b082      	sub	sp, #8
    1c3a:	f807 0c01 	strb.w	r0, [r7, #-1]
    1c3e:	2100      	movs	r1, #0
    Output::new(pin, Level::Low, OutputDrive::Standard)
    1c40:	f807 1c03 	strb.w	r1, [r7, #-3]
    1c44:	f807 1c02 	strb.w	r1, [r7, #-2]
    1c48:	f817 1c03 	ldrb.w	r1, [r7, #-3]
    1c4c:	f817 2c02 	ldrb.w	r2, [r7, #-2]
    1c50:	f001 fa2a 	bl	30a8 <_ZN11embassy_nrf4gpio6Output3new17hd692aeb55207d18bE>
}
    1c54:	b002      	add	sp, #8
    1c56:	bd80      	pop	{r7, pc}

00001c58 <_ZN5defmt6export11into_result17hdf4031145057e60aE>:
pub fn into_result<T: traits::IntoResult>(x: T) -> Result<T::Ok, T::Error> {
    1c58:	b580      	push	{r7, lr}
    1c5a:	466f      	mov	r7, sp
    1c5c:	b082      	sub	sp, #8
    1c5e:	f807 0c01 	strb.w	r0, [r7, #-1]
    x.into_result()
    1c62:	f001 f8ab 	bl	2dbc <_ZN87_$LT$core..result..Result$LT$T$C$E$GT$$u20$as$u20$defmt..export..traits..IntoResult$GT$11into_result17h0a61fded342268acE>
}
    1c66:	b002      	add	sp, #8
    1c68:	bd80      	pop	{r7, pc}

00001c6a <_ZN5defmt6export3fmt17h656bee50977e5e37E>:
}

/// Implementation detail
pub fn fmt<T: Format + ?Sized>(f: &T) {
    1c6a:	b580      	push	{r7, lr}
    1c6c:	466f      	mov	r7, sp
    1c6e:	b084      	sub	sp, #16
    1c70:	9001      	str	r0, [sp, #4]
    1c72:	9003      	str	r0, [sp, #12]
    istr(&T::_format_tag());
    1c74:	f007 fe84 	bl	9980 <_ZN79_$LT$embassy_executor..spawner..SpawnError$u20$as$u20$defmt..traits..Format$GT$11_format_tag17hb60d30816bd64b53E>
    1c78:	f827 0c06 	strh.w	r0, [r7, #-6]
    1c7c:	1fb8      	subs	r0, r7, #6
    1c7e:	f008 f8d1 	bl	9e24 <_ZN5defmt6export4istr17h6a3148ca5bdcd2a2E>
    1c82:	9801      	ldr	r0, [sp, #4]
    f._format_data();
    1c84:	f007 fe85 	bl	9992 <_ZN79_$LT$embassy_executor..spawner..SpawnError$u20$as$u20$defmt..traits..Format$GT$12_format_data17ha405255581f7b4d4E>
}
    1c88:	b004      	add	sp, #16
    1c8a:	bd80      	pop	{r7, pc}

00001c8c <_ZN5defmt6export3fmt17hb6bcda53adefe2a9E>:
pub fn fmt<T: Format + ?Sized>(f: &T) {
    1c8c:	b580      	push	{r7, lr}
    1c8e:	466f      	mov	r7, sp
    1c90:	b084      	sub	sp, #16
    1c92:	9001      	str	r0, [sp, #4]
    1c94:	9003      	str	r0, [sp, #12]
    istr(&T::_format_tag());
    1c96:	f000 fc4f 	bl	2538 <_ZN5defmt5impls10primitives57_$LT$impl$u20$defmt..traits..Format$u20$for$u20$$RF$T$GT$11_format_tag17hdf571e4e0b25c09bE>
    1c9a:	f827 0c06 	strh.w	r0, [r7, #-6]
    1c9e:	1fb8      	subs	r0, r7, #6
    1ca0:	f008 f8c0 	bl	9e24 <_ZN5defmt6export4istr17h6a3148ca5bdcd2a2E>
    1ca4:	9801      	ldr	r0, [sp, #4]
    f._format_data();
    1ca6:	f000 fc4c 	bl	2542 <_ZN5defmt5impls10primitives57_$LT$impl$u20$defmt..traits..Format$u20$for$u20$$RF$T$GT$12_format_data17hf97a35e56888da7bE>
}
    1caa:	b004      	add	sp, #16
    1cac:	bd80      	pop	{r7, pc}
    1cae:	d4d4      	bmi.n	1c5a <_ZN5defmt6export11into_result17hdf4031145057e60aE+0x2>

00001cb0 <_ZN30microbit_async_display_example21____embassy_main_task28_$u7b$$u7b$closure$u7d$$u7d$17h5f7f56bc54b55794E>:
/// the entry point for the Embassy async runtime. The executor handles:
/// - Task scheduling and timing
/// - Interrupt-driven I/O
/// - Power management during idle periods
/// - Async/await coordination
#[embassy_executor::main]
    1cb0:	b5d0      	push	{r4, r6, r7, lr}
    1cb2:	af02      	add	r7, sp, #8
    1cb4:	f5ad 6d94 	sub.w	sp, sp, #1184	@ 0x4a0
    1cb8:	910d      	str	r1, [sp, #52]	@ 0x34
    1cba:	900f      	str	r0, [sp, #60]	@ 0x3c
    1cbc:	f847 1c28 	str.w	r1, [r7, #-40]
    1cc0:	980f      	ldr	r0, [sp, #60]	@ 0x3c
    1cc2:	f890 003e 	ldrb.w	r0, [r0, #62]	@ 0x3e
    1cc6:	900e      	str	r0, [sp, #56]	@ 0x38
    1cc8:	990e      	ldr	r1, [sp, #56]	@ 0x38
    1cca:	e8df f001 	tbb	[pc, r1]
    1cce:	0405      	.short	0x0405
    1cd0:	4a464204 	.word	0x4a464204
    1cd4:	004e      	.short	0x004e
    1cd6:	defe      	udf	#254	@ 0xfe
    1cd8:	980d      	ldr	r0, [sp, #52]	@ 0x34
    1cda:	f847 0c2c 	str.w	r0, [r7, #-44]
async fn main(_spawner: Spawner) {
    1cde:	980f      	ldr	r0, [sp, #60]	@ 0x3c
    1ce0:	6b80      	ldr	r0, [r0, #56]	@ 0x38
    1ce2:	f847 0c20 	str.w	r0, [r7, #-32]
    1ce6:	a811      	add	r0, sp, #68	@ 0x44
    let board = Microbit::default();
    1ce8:	900a      	str	r0, [sp, #40]	@ 0x28
    1cea:	f7ff ff07 	bl	1afc <_ZN90_$LT$microbit_async_display_example..board..Microbit$u20$as$u20$core..default..Default$GT$7default17h038694f592831baeE>
    1cee:	990a      	ldr	r1, [sp, #40]	@ 0x28

    let mut display = board.display;
    1cf0:	980f      	ldr	r0, [sp, #60]	@ 0x3c
    1cf2:	e8b1 500c 	ldmia.w	r1!, {r2, r3, ip, lr}
    1cf6:	e8a0 500c 	stmia.w	r0!, {r2, r3, ip, lr}
    1cfa:	e8b1 501c 	ldmia.w	r1!, {r2, r3, r4, ip, lr}
    1cfe:	e8a0 501c 	stmia.w	r0!, {r2, r3, r4, ip, lr}
    1d02:	e891 501c 	ldmia.w	r1, {r2, r3, r4, ip, lr}
    1d06:	e880 501c 	stmia.w	r0, {r2, r3, r4, ip, lr}
    let mut btn_a = board.btn_a;
    1d0a:	990f      	ldr	r1, [sp, #60]	@ 0x3c
    1d0c:	f89d 007c 	ldrb.w	r0, [sp, #124]	@ 0x7c
    1d10:	f881 003c 	strb.w	r0, [r1, #60]	@ 0x3c
    let mut btn_b = board.btn_b;
    1d14:	990f      	ldr	r1, [sp, #60]	@ 0x3c
    1d16:	f89d 007d 	ldrb.w	r0, [sp, #125]	@ 0x7d
    1d1a:	f881 003d 	strb.w	r0, [r1, #61]	@ 0x3d

    display.set_brightness(Brightness::MAX);
    1d1e:	980f      	ldr	r0, [sp, #60]	@ 0x3c
    1d20:	210a      	movs	r1, #10
    1d22:	f7fe ff2a 	bl	b7a <_ZN30microbit_async_display_example7display26LedMatrix$LT$P$C$_$C$_$GT$14set_brightness17h6b9aafaaf56ca5aaE>
    display.scroll("Hello, World!").await;
    1d26:	990f      	ldr	r1, [sp, #60]	@ 0x3c
    1d28:	f64b 72e8 	movw	r2, #49128	@ 0xbfe8
    1d2c:	f2c0 0200 	movt	r2, #0
    1d30:	a842      	add	r0, sp, #264	@ 0x108
    1d32:	900b      	str	r0, [sp, #44]	@ 0x2c
    1d34:	230d      	movs	r3, #13
    1d36:	f7ff f8c0 	bl	eba <_ZN30microbit_async_display_example7display26LedMatrix$LT$P$C$_$C$_$GT$6scroll17hb28bce8910432fa3E>
    1d3a:	990b      	ldr	r1, [sp, #44]	@ 0x2c
    1d3c:	a820      	add	r0, sp, #128	@ 0x80
    1d3e:	900c      	str	r0, [sp, #48]	@ 0x30
    1d40:	f7fe fe95 	bl	a6e <_ZN59_$LT$F$u20$as$u20$core..future..into_future..IntoFuture$GT$11into_future17h90e0f18db2d5d939E>
    1d44:	990c      	ldr	r1, [sp, #48]	@ 0x30
    1d46:	980f      	ldr	r0, [sp, #60]	@ 0x3c
    1d48:	3040      	adds	r0, #64	@ 0x40
    1d4a:	2288      	movs	r2, #136	@ 0x88
    1d4c:	f009 fc75 	bl	b63a <__aeabi_memcpy8>
    1d50:	e00f      	b.n	1d72 <_ZN30microbit_async_display_example21____embassy_main_task28_$u7b$$u7b$closure$u7d$$u7d$17h5f7f56bc54b55794E+0xc2>
    1d52:	980d      	ldr	r0, [sp, #52]	@ 0x34
    1d54:	f847 0c2c 	str.w	r0, [r7, #-44]
    1d58:	e00b      	b.n	1d72 <_ZN30microbit_async_display_example21____embassy_main_task28_$u7b$$u7b$closure$u7d$$u7d$17h5f7f56bc54b55794E+0xc2>
    defmt::info!("Application started, press buttons!");
    loop {
        match select(btn_a.wait_for_low(), btn_b.wait_for_low()).await {
    1d5a:	980d      	ldr	r0, [sp, #52]	@ 0x34
    1d5c:	f847 0c2c 	str.w	r0, [r7, #-44]
    1d60:	e053      	b.n	1e0a <_ZN30microbit_async_display_example21____embassy_main_task28_$u7b$$u7b$closure$u7d$$u7d$17h5f7f56bc54b55794E+0x15a>
            Either::First(_) => {
                handle_button_a_press(&mut display).await;
    1d62:	980d      	ldr	r0, [sp, #52]	@ 0x34
    1d64:	f847 0c2c 	str.w	r0, [r7, #-44]
    1d68:	e05e      	b.n	1e28 <_ZN30microbit_async_display_example21____embassy_main_task28_$u7b$$u7b$closure$u7d$$u7d$17h5f7f56bc54b55794E+0x178>
            }
            Either::Second(_) => {
                handle_button_b_press(&mut display).await;
    1d6a:	980d      	ldr	r0, [sp, #52]	@ 0x34
    1d6c:	f847 0c2c 	str.w	r0, [r7, #-44]
    1d70:	e065      	b.n	1e3e <_ZN30microbit_async_display_example21____embassy_main_task28_$u7b$$u7b$closure$u7d$$u7d$17h5f7f56bc54b55794E+0x18e>
    display.scroll("Hello, World!").await;
    1d72:	980f      	ldr	r0, [sp, #60]	@ 0x3c
    1d74:	3040      	adds	r0, #64	@ 0x40
    1d76:	f847 0c0c 	str.w	r0, [r7, #-12]
    1d7a:	f857 1c2c 	ldr.w	r1, [r7, #-44]
    1d7e:	f7ff f8ae 	bl	ede <_ZN30microbit_async_display_example7display26LedMatrix$LT$P$C$_$C$_$GT$6scroll28_$u7b$$u7b$closure$u7d$$u7d$17h10d4be5fd8465005E>
    1d82:	b160      	cbz	r0, 1d9e <_ZN30microbit_async_display_example21____embassy_main_task28_$u7b$$u7b$closure$u7d$$u7d$17h5f7f56bc54b55794E+0xee>
    1d84:	e7ff      	b.n	1d86 <_ZN30microbit_async_display_example21____embassy_main_task28_$u7b$$u7b$closure$u7d$$u7d$17h5f7f56bc54b55794E+0xd6>
    1d86:	2001      	movs	r0, #1
    1d88:	f88d 0043 	strb.w	r0, [sp, #67]	@ 0x43
    1d8c:	990f      	ldr	r1, [sp, #60]	@ 0x3c
    1d8e:	2003      	movs	r0, #3
    1d90:	f881 003e 	strb.w	r0, [r1, #62]	@ 0x3e
    1d94:	f89d 0043 	ldrb.w	r0, [sp, #67]	@ 0x43
    1d98:	f50d 6d94 	add.w	sp, sp, #1184	@ 0x4a0
    1d9c:	bdd0      	pop	{r4, r6, r7, pc}
    1d9e:	980f      	ldr	r0, [sp, #60]	@ 0x3c
    1da0:	3040      	adds	r0, #64	@ 0x40
    1da2:	f000 fcae 	bl	2702 <_ZN4core3ptr161drop_in_place$LT$microbit_async_display_example..display..LedMatrix$LT$embassy_nrf..gpio..Output$C$5_usize$C$5_usize$GT$..scroll..$u7b$$u7b$closure$u7d$$u7d$$GT$17h85843f94cba3737aE>
    defmt::info!("Application started, press buttons!");
    1da6:	f240 0003 	movw	r0, #3
    1daa:	f2c0 0000 	movt	r0, #0
    1dae:	f008 f818 	bl	9de2 <_ZN5defmt6export9make_istr17h5fd4c9793e25184eE>
    1db2:	f8ad 0192 	strh.w	r0, [sp, #402]	@ 0x192
    1db6:	f50d 70c9 	add.w	r0, sp, #402	@ 0x192
    1dba:	f008 f881 	bl	9ec0 <_ZN5defmt6export26acquire_header_and_release17h7ce8ef2ffd00dd1bE>
    1dbe:	e7ff      	b.n	1dc0 <_ZN30microbit_async_display_example21____embassy_main_task28_$u7b$$u7b$closure$u7d$$u7d$17h5f7f56bc54b55794E+0x110>
        match select(btn_a.wait_for_low(), btn_b.wait_for_low()).await {
    1dc0:	980f      	ldr	r0, [sp, #60]	@ 0x3c
    1dc2:	f100 013c 	add.w	r1, r0, #60	@ 0x3c
    1dc6:	a875      	add	r0, sp, #468	@ 0x1d4
    1dc8:	9006      	str	r0, [sp, #24]
    1dca:	f002 f8d8 	bl	3f7e <_ZN11embassy_nrf6gpiote42_$LT$impl$u20$embassy_nrf..gpio..Input$GT$12wait_for_low17hbef67e97154e93c2E>
    1dce:	980f      	ldr	r0, [sp, #60]	@ 0x3c
    1dd0:	f100 013d 	add.w	r1, r0, #61	@ 0x3d
    1dd4:	a879      	add	r0, sp, #484	@ 0x1e4
    1dd6:	9007      	str	r0, [sp, #28]
    1dd8:	f002 f8d1 	bl	3f7e <_ZN11embassy_nrf6gpiote42_$LT$impl$u20$embassy_nrf..gpio..Input$GT$12wait_for_low17hbef67e97154e93c2E>
    1ddc:	9906      	ldr	r1, [sp, #24]
    1dde:	9a07      	ldr	r2, [sp, #28]
    1de0:	a86d      	add	r0, sp, #436	@ 0x1b4
    1de2:	9008      	str	r0, [sp, #32]
    1de4:	f000 f94b 	bl	207e <_ZN15embassy_futures6select6select17hf183cd5b3a37f702E>
    1de8:	9908      	ldr	r1, [sp, #32]
    1dea:	a865      	add	r0, sp, #404	@ 0x194
    1dec:	9009      	str	r0, [sp, #36]	@ 0x24
    1dee:	f000 f966 	bl	20be <_ZN59_$LT$F$u20$as$u20$core..future..into_future..IntoFuture$GT$11into_future17h3559e0cd8cd639c6E>
    1df2:	9909      	ldr	r1, [sp, #36]	@ 0x24
    1df4:	980f      	ldr	r0, [sp, #60]	@ 0x3c
    1df6:	3040      	adds	r0, #64	@ 0x40
    1df8:	e8b1 500c 	ldmia.w	r1!, {r2, r3, ip, lr}
    1dfc:	e8a0 500c 	stmia.w	r0!, {r2, r3, ip, lr}
    1e00:	e891 500c 	ldmia.w	r1, {r2, r3, ip, lr}
    1e04:	e880 500c 	stmia.w	r0, {r2, r3, ip, lr}
    1e08:	e7ff      	b.n	1e0a <_ZN30microbit_async_display_example21____embassy_main_task28_$u7b$$u7b$closure$u7d$$u7d$17h5f7f56bc54b55794E+0x15a>
    1e0a:	980f      	ldr	r0, [sp, #60]	@ 0x3c
    1e0c:	3040      	adds	r0, #64	@ 0x40
    1e0e:	f847 0c10 	str.w	r0, [r7, #-16]
    1e12:	f857 1c2c 	ldr.w	r1, [r7, #-44]
    1e16:	f000 f95d 	bl	20d4 <_ZN93_$LT$embassy_futures..select..Select$LT$A$C$B$GT$$u20$as$u20$core..future..future..Future$GT$4poll17hfc65bf7486977cc1E>
    1e1a:	f88d 01f7 	strb.w	r0, [sp, #503]	@ 0x1f7
    1e1e:	f89d 01f7 	ldrb.w	r0, [sp, #503]	@ 0x1f7
    1e22:	2802      	cmp	r0, #2
    1e24:	d026      	beq.n	1e74 <_ZN30microbit_async_display_example21____embassy_main_task28_$u7b$$u7b$closure$u7d$$u7d$17h5f7f56bc54b55794E+0x1c4>
    1e26:	e031      	b.n	1e8c <_ZN30microbit_async_display_example21____embassy_main_task28_$u7b$$u7b$closure$u7d$$u7d$17h5f7f56bc54b55794E+0x1dc>
                handle_button_a_press(&mut display).await;
    1e28:	980f      	ldr	r0, [sp, #60]	@ 0x3c
    1e2a:	3040      	adds	r0, #64	@ 0x40
    1e2c:	f847 0c14 	str.w	r0, [r7, #-20]
    1e30:	f857 1c2c 	ldr.w	r1, [r7, #-44]
    1e34:	f000 fa2e 	bl	2294 <_ZN30microbit_async_display_example6button21handle_button_a_press28_$u7b$$u7b$closure$u7d$$u7d$17h0cdeba80cc131c84E>
    1e38:	2800      	cmp	r0, #0
    1e3a:	d156      	bne.n	1eea <_ZN30microbit_async_display_example21____embassy_main_task28_$u7b$$u7b$closure$u7d$$u7d$17h5f7f56bc54b55794E+0x23a>
    1e3c:	e061      	b.n	1f02 <_ZN30microbit_async_display_example21____embassy_main_task28_$u7b$$u7b$closure$u7d$$u7d$17h5f7f56bc54b55794E+0x252>
                handle_button_b_press(&mut display).await;
    1e3e:	980f      	ldr	r0, [sp, #60]	@ 0x3c
    1e40:	3040      	adds	r0, #64	@ 0x40
    1e42:	f847 0c18 	str.w	r0, [r7, #-24]
    1e46:	f857 1c2c 	ldr.w	r1, [r7, #-44]
    1e4a:	f000 fa93 	bl	2374 <_ZN30microbit_async_display_example6button21handle_button_b_press28_$u7b$$u7b$closure$u7d$$u7d$17hd71b09cbe5d58a5dE>
    1e4e:	b160      	cbz	r0, 1e6a <_ZN30microbit_async_display_example21____embassy_main_task28_$u7b$$u7b$closure$u7d$$u7d$17h5f7f56bc54b55794E+0x1ba>
    1e50:	e7ff      	b.n	1e52 <_ZN30microbit_async_display_example21____embassy_main_task28_$u7b$$u7b$closure$u7d$$u7d$17h5f7f56bc54b55794E+0x1a2>
    1e52:	2001      	movs	r0, #1
    1e54:	f88d 0043 	strb.w	r0, [sp, #67]	@ 0x43
    1e58:	990f      	ldr	r1, [sp, #60]	@ 0x3c
    1e5a:	2006      	movs	r0, #6
    1e5c:	f881 003e 	strb.w	r0, [r1, #62]	@ 0x3e
    1e60:	f89d 0043 	ldrb.w	r0, [sp, #67]	@ 0x43
    1e64:	f50d 6d94 	add.w	sp, sp, #1184	@ 0x4a0
    1e68:	bdd0      	pop	{r4, r6, r7, pc}
    1e6a:	980f      	ldr	r0, [sp, #60]	@ 0x3c
    1e6c:	3040      	adds	r0, #64	@ 0x40
    1e6e:	f000 fbf2 	bl	2656 <_ZN4core3ptr111drop_in_place$LT$microbit_async_display_example..button..handle_button_b_press..$u7b$$u7b$closure$u7d$$u7d$$GT$17h4fdc53954e00fc5dE>
    1e72:	e7a5      	b.n	1dc0 <_ZN30microbit_async_display_example21____embassy_main_task28_$u7b$$u7b$closure$u7d$$u7d$17h5f7f56bc54b55794E+0x110>
    1e74:	2001      	movs	r0, #1
        match select(btn_a.wait_for_low(), btn_b.wait_for_low()).await {
    1e76:	f88d 0043 	strb.w	r0, [sp, #67]	@ 0x43
    1e7a:	990f      	ldr	r1, [sp, #60]	@ 0x3c
    1e7c:	2004      	movs	r0, #4
    1e7e:	f881 003e 	strb.w	r0, [r1, #62]	@ 0x3e
    1e82:	f89d 0043 	ldrb.w	r0, [sp, #67]	@ 0x43
    1e86:	f50d 6d94 	add.w	sp, sp, #1184	@ 0x4a0
    1e8a:	bdd0      	pop	{r4, r6, r7, pc}
    1e8c:	f89d 01f7 	ldrb.w	r0, [sp, #503]	@ 0x1f7
    1e90:	9005      	str	r0, [sp, #20]
    1e92:	f807 0c19 	strb.w	r0, [r7, #-25]
    1e96:	980f      	ldr	r0, [sp, #60]	@ 0x3c
    1e98:	3040      	adds	r0, #64	@ 0x40
    1e9a:	f000 fc8c 	bl	27b6 <_ZN4core3ptr273drop_in_place$LT$embassy_futures..select..Select$LT$embassy_nrf..gpiote..$LT$impl$u20$embassy_nrf..gpio..Input$GT$..wait_for_low..$u7b$$u7b$closure$u7d$$u7d$$C$embassy_nrf..gpiote..$LT$impl$u20$embassy_nrf..gpio..Input$GT$..wait_for_low..$u7b$$u7b$closure$u7d$$u7d$$GT$$GT$17h39035fe5402c4c5aE>
    1e9e:	9805      	ldr	r0, [sp, #20]
    1ea0:	07c0      	lsls	r0, r0, #31
    1ea2:	b188      	cbz	r0, 1ec8 <_ZN30microbit_async_display_example21____embassy_main_task28_$u7b$$u7b$closure$u7d$$u7d$17h5f7f56bc54b55794E+0x218>
    1ea4:	e7ff      	b.n	1ea6 <_ZN30microbit_async_display_example21____embassy_main_task28_$u7b$$u7b$closure$u7d$$u7d$17h5f7f56bc54b55794E+0x1f6>
                handle_button_b_press(&mut display).await;
    1ea6:	990f      	ldr	r1, [sp, #60]	@ 0x3c
    1ea8:	a8f6      	add	r0, sp, #984	@ 0x3d8
    1eaa:	9003      	str	r0, [sp, #12]
    1eac:	f000 ffba 	bl	2e24 <_ZN30microbit_async_display_example6button21handle_button_b_press17ha46feb442fbaf9a9E>
    1eb0:	9903      	ldr	r1, [sp, #12]
    1eb2:	a8ce      	add	r0, sp, #824	@ 0x338
    1eb4:	9004      	str	r0, [sp, #16]
    1eb6:	f000 f945 	bl	2144 <_ZN59_$LT$F$u20$as$u20$core..future..into_future..IntoFuture$GT$11into_future17h56932797be1dea54E>
    1eba:	9904      	ldr	r1, [sp, #16]
    1ebc:	980f      	ldr	r0, [sp, #60]	@ 0x3c
    1ebe:	3040      	adds	r0, #64	@ 0x40
    1ec0:	22a0      	movs	r2, #160	@ 0xa0
    1ec2:	f009 fbba 	bl	b63a <__aeabi_memcpy8>
    1ec6:	e7ba      	b.n	1e3e <_ZN30microbit_async_display_example21____embassy_main_task28_$u7b$$u7b$closure$u7d$$u7d$17h5f7f56bc54b55794E+0x18e>
                handle_button_a_press(&mut display).await;
    1ec8:	990f      	ldr	r1, [sp, #60]	@ 0x3c
    1eca:	a8a6      	add	r0, sp, #664	@ 0x298
    1ecc:	9001      	str	r0, [sp, #4]
    1ece:	f000 ff9b 	bl	2e08 <_ZN30microbit_async_display_example6button21handle_button_a_press17hee6c5341e3c2e2baE>
    1ed2:	9901      	ldr	r1, [sp, #4]
    1ed4:	a87e      	add	r0, sp, #504	@ 0x1f8
    1ed6:	9002      	str	r0, [sp, #8]
    1ed8:	f000 f92e 	bl	2138 <_ZN59_$LT$F$u20$as$u20$core..future..into_future..IntoFuture$GT$11into_future17h4688f24b45962794E>
    1edc:	9902      	ldr	r1, [sp, #8]
    1ede:	980f      	ldr	r0, [sp, #60]	@ 0x3c
    1ee0:	3040      	adds	r0, #64	@ 0x40
    1ee2:	22a0      	movs	r2, #160	@ 0xa0
    1ee4:	f009 fba9 	bl	b63a <__aeabi_memcpy8>
    1ee8:	e79e      	b.n	1e28 <_ZN30microbit_async_display_example21____embassy_main_task28_$u7b$$u7b$closure$u7d$$u7d$17h5f7f56bc54b55794E+0x178>
    1eea:	2001      	movs	r0, #1
    1eec:	f88d 0043 	strb.w	r0, [sp, #67]	@ 0x43
    1ef0:	990f      	ldr	r1, [sp, #60]	@ 0x3c
    1ef2:	2005      	movs	r0, #5
    1ef4:	f881 003e 	strb.w	r0, [r1, #62]	@ 0x3e
    1ef8:	f89d 0043 	ldrb.w	r0, [sp, #67]	@ 0x43
    1efc:	f50d 6d94 	add.w	sp, sp, #1184	@ 0x4a0
    1f00:	bdd0      	pop	{r4, r6, r7, pc}
    1f02:	980f      	ldr	r0, [sp, #60]	@ 0x3c
    1f04:	3040      	adds	r0, #64	@ 0x40
    1f06:	f000 fb8e 	bl	2626 <_ZN4core3ptr111drop_in_place$LT$microbit_async_display_example..button..handle_button_a_press..$u7b$$u7b$closure$u7d$$u7d$$GT$17ha00e66515095156bE>
    1f0a:	e759      	b.n	1dc0 <_ZN30microbit_async_display_example21____embassy_main_task28_$u7b$$u7b$closure$u7d$$u7d$17h5f7f56bc54b55794E+0x110>

00001f0c <_ZN30microbit_async_display_example14__embassy_main28_$u7b$$u7b$closure$u7d$$u7d$17h63f3b2467cca3291E>:
#[embassy_executor::main]
    1f0c:	b580      	push	{r7, lr}
    1f0e:	466f      	mov	r7, sp
    1f10:	b082      	sub	sp, #8
    1f12:	9101      	str	r1, [sp, #4]
    1f14:	f000 f815 	bl	1f42 <_ZN30microbit_async_display_example21____embassy_main_task17h310dce9c875c5abdE>
    1f18:	b002      	add	sp, #8
    1f1a:	bd80      	pop	{r7, pc}

00001f1c <_ZN30microbit_async_display_example18__cortex_m_rt_main13__make_static17hcd078f9d8ccbce0dE>:
    1f1c:	b580      	push	{r7, lr}
    1f1e:	466f      	mov	r7, sp
    1f20:	b081      	sub	sp, #4
    1f22:	9000      	str	r0, [sp, #0]
    1f24:	b001      	add	sp, #4
    1f26:	bd80      	pop	{r7, pc}

00001f28 <_ZN30microbit_async_display_example18__cortex_m_rt_main28_$u7b$$u7b$closure$u7d$$u7d$17h896f7c19bfe0cb50E>:
    1f28:	b580      	push	{r7, lr}
    1f2a:	466f      	mov	r7, sp
    1f2c:	b082      	sub	sp, #8
    1f2e:	9000      	str	r0, [sp, #0]
    1f30:	9800      	ldr	r0, [sp, #0]
    1f32:	f000 f813 	bl	1f5c <_ZN30microbit_async_display_example14__embassy_main17h3761b8d6293c33d6E>
    1f36:	4601      	mov	r1, r0
    1f38:	4668      	mov	r0, sp
    1f3a:	f000 ff91 	bl	2e60 <_ZN16embassy_executor7spawner7Spawner10must_spawn17hfa47033edf7cc1b8E>
    1f3e:	b002      	add	sp, #8
    1f40:	bd80      	pop	{r7, pc}

00001f42 <_ZN30microbit_async_display_example21____embassy_main_task17h310dce9c875c5abdE>:
    1f42:	b580      	push	{r7, lr}
    1f44:	466f      	mov	r7, sp
    1f46:	b082      	sub	sp, #8
    1f48:	9100      	str	r1, [sp, #0]
    1f4a:	4601      	mov	r1, r0
    1f4c:	9800      	ldr	r0, [sp, #0]
    1f4e:	9001      	str	r0, [sp, #4]
    1f50:	6388      	str	r0, [r1, #56]	@ 0x38
    1f52:	2000      	movs	r0, #0
    1f54:	f881 003e 	strb.w	r0, [r1, #62]	@ 0x3e
    1f58:	b002      	add	sp, #8
    1f5a:	bd80      	pop	{r7, pc}

00001f5c <_ZN30microbit_async_display_example14__embassy_main17h3761b8d6293c33d6E>:
    1f5c:	b580      	push	{r7, lr}
    1f5e:	466f      	mov	r7, sp
    1f60:	b084      	sub	sp, #16
    1f62:	9001      	str	r0, [sp, #4]
    1f64:	9003      	str	r0, [sp, #12]
    1f66:	f240 0050 	movw	r0, #80	@ 0x50
    1f6a:	f2c2 0000 	movt	r0, #8192	@ 0x2000
    1f6e:	f7fe fb86 	bl	67e <_ZN16embassy_executor7_export11TaskPoolRef3get17h2a7433025a7916ccE>
    1f72:	9901      	ldr	r1, [sp, #4]
    1f74:	9102      	str	r1, [sp, #8]
    1f76:	9902      	ldr	r1, [sp, #8]
    1f78:	f7fe fadd 	bl	536 <_ZN16embassy_executor3raw21TaskPool$LT$F$C$_$GT$15_spawn_async_fn17h1601693635614615E>
    1f7c:	b004      	add	sp, #16
    1f7e:	bd80      	pop	{r7, pc}

00001f80 <main>:
    1f80:	b580      	push	{r7, lr}
    1f82:	466f      	mov	r7, sp
    1f84:	f000 f800 	bl	1f88 <_ZN30microbit_async_display_example18__cortex_m_rt_main17h00ef583cce6b19d8E>

00001f88 <_ZN30microbit_async_display_example18__cortex_m_rt_main17h00ef583cce6b19d8E>:
    1f88:	b580      	push	{r7, lr}
    1f8a:	466f      	mov	r7, sp
    1f8c:	b084      	sub	sp, #16
    1f8e:	a801      	add	r0, sp, #4
    1f90:	9000      	str	r0, [sp, #0]
    1f92:	f007 fa8c 	bl	94ae <_ZN16embassy_executor4arch6thread8Executor3new17h270c35b6a8c0be72E>
    1f96:	9800      	ldr	r0, [sp, #0]
    1f98:	f7ff ffc0 	bl	1f1c <_ZN30microbit_async_display_example18__cortex_m_rt_main13__make_static17hcd078f9d8ccbce0dE>
    1f9c:	9003      	str	r0, [sp, #12]
    1f9e:	f7fe fa43 	bl	428 <_ZN16embassy_executor4arch6thread8Executor3run17h88665bb70e3781baE>

00001fa2 <_ZN5defmt5impls10primitives55_$LT$impl$u20$defmt..traits..Format$u20$for$u20$str$GT$11_format_tag17h283c06a84b929d89E>:
    ($ty:ty, $fmt: literal, $self_:ident, $write:expr) => {
        impl Format for $ty {
            default_format!();

            #[inline]
            fn _format_tag() -> Str {
    1fa2:	b580      	push	{r7, lr}
    1fa4:	466f      	mov	r7, sp
                internp!($fmt)
    1fa6:	f240 0002 	movw	r0, #2
    1faa:	f2c0 0000 	movt	r0, #0
    1fae:	f007 ff18 	bl	9de2 <_ZN5defmt6export9make_istr17h5fd4c9793e25184eE>
            }
    1fb2:	bd80      	pop	{r7, pc}

00001fb4 <_ZN5defmt5impls10primitives55_$LT$impl$u20$defmt..traits..Format$u20$for$u20$str$GT$12_format_data17h63ee45bd70361d5eE>:

            #[inline]
            fn _format_data(&$self_) {
    1fb4:	b580      	push	{r7, lr}
    1fb6:	466f      	mov	r7, sp
    1fb8:	b082      	sub	sp, #8
    1fba:	9000      	str	r0, [sp, #0]
    1fbc:	9101      	str	r1, [sp, #4]
prim!(u64, "{=u64}", self, export::u64(self));
prim!(u128, "{=u128}", self, export::u128(self));
prim!(usize, "{=usize}", self, export::usize(self));
prim!(f32, "{=f32}", self, export::f32(self));
prim!(f64, "{=f64}", self, export::f64(self));
prim!(str, "{=str}", self, export::str(self));
    1fbe:	f007 ff1a 	bl	9df6 <_ZN5defmt6export3str17h36a62e65d7ae988eE>
            }
    1fc2:	b002      	add	sp, #8
    1fc4:	bd80      	pop	{r7, pc}

00001fc6 <_ZN4core5alloc6layout6Layout25from_size_align_unchecked18precondition_check17hc90b318fc1832671E>:
            // LLVM on the other hand sees the constant branch, so if it's `false`, it can immediately delete it without
            // inlining the check. If it's `true`, it can inline it and get significantly better performance.
            #[rustc_no_mir_inline]
            #[inline]
            #[rustc_nounwind]
            const fn precondition_check($($name:$ty),*) {
    1fc6:	b580      	push	{r7, lr}
    1fc8:	466f      	mov	r7, sp
    1fca:	b082      	sub	sp, #8
    1fcc:	9000      	str	r0, [sp, #0]
    1fce:	9101      	str	r1, [sp, #4]
            "Layout::from_size_align_unchecked requires that align is a power of 2 \
            and the rounded-up allocation size does not exceed isize::MAX",
            (
                size: usize = size,
                align: usize = align,
            ) => Layout::is_size_align_valid(size, align)
    1fd0:	f009 f855 	bl	b07e <_ZN4core5alloc6layout6Layout19is_size_align_valid17ha9abfdd8dbd267f5E>
    1fd4:	b940      	cbnz	r0, 1fe8 <_ZN4core5alloc6layout6Layout25from_size_align_unchecked18precondition_check17hc90b318fc1832671E+0x22>
    1fd6:	e7ff      	b.n	1fd8 <_ZN4core5alloc6layout6Layout25from_size_align_unchecked18precondition_check17hc90b318fc1832671E+0x12>
                if !$e {
                    ::core::panicking::panic_nounwind(concat!("unsafe precondition(s) violated: ", $message,
    1fd8:	f64b 70f5 	movw	r0, #49141	@ 0xbff5
    1fdc:	f2c0 0000 	movt	r0, #0
    1fe0:	f240 1119 	movw	r1, #281	@ 0x119
    1fe4:	f008 fa54 	bl	a490 <_ZN4core9panicking14panic_nounwind17h5e77e7d8ad1838b7E>
                        "\n\nThis indicates a bug in the program. \
                        This Undefined Behavior check is optional, and cannot be relied on for safety."));
                }
            }
    1fe8:	b002      	add	sp, #8
    1fea:	bd80      	pop	{r7, pc}

00001fec <_ZN4core5alloc6layout6Layout4size17h30fba2bb97d3f226E>:
    /// The minimum size in bytes for a memory block of this layout.
    #[stable(feature = "alloc_layout", since = "1.28.0")]
    #[rustc_const_stable(feature = "const_alloc_layout_size_align", since = "1.50.0")]
    #[must_use]
    #[inline]
    pub const fn size(&self) -> usize {
    1fec:	b580      	push	{r7, lr}
    1fee:	466f      	mov	r7, sp
    1ff0:	b081      	sub	sp, #4
    1ff2:	9000      	str	r0, [sp, #0]
        self.size
    1ff4:	6840      	ldr	r0, [r0, #4]
    }
    1ff6:	b001      	add	sp, #4
    1ff8:	bd80      	pop	{r7, pc}

00001ffa <_ZN4core5alloc6layout6Layout5align17heea29df1c3211099E>:
    #[stable(feature = "alloc_layout", since = "1.28.0")]
    #[rustc_const_stable(feature = "const_alloc_layout_size_align", since = "1.50.0")]
    #[must_use = "this returns the minimum alignment, \
                  without modifying the layout"]
    #[inline]
    pub const fn align(&self) -> usize {
    1ffa:	b580      	push	{r7, lr}
    1ffc:	466f      	mov	r7, sp
    1ffe:	b081      	sub	sp, #4
    2000:	9000      	str	r0, [sp, #0]
        self.align.as_usize()
    2002:	6800      	ldr	r0, [r0, #0]
    }
    2004:	b001      	add	sp, #4
    2006:	bd80      	pop	{r7, pc}

00002008 <_ZN110_$LT$core..iter..adapters..enumerate..Enumerate$LT$I$GT$$u20$as$u20$core..iter..traits..iterator..Iterator$GT$4next17h8bae91d0affa80cfE>:
    /// # Panics
    ///
    /// Might panic if the index of the element overflows a `usize`.
    #[inline]
    #[rustc_inherit_overflow_checks]
    fn next(&mut self) -> Option<(usize, <I as Iterator>::Item)> {
    2008:	b580      	push	{r7, lr}
    200a:	466f      	mov	r7, sp
    200c:	b08e      	sub	sp, #56	@ 0x38
    200e:	9004      	str	r0, [sp, #16]
    2010:	9009      	str	r0, [sp, #36]	@ 0x24
        let a = self.iter.next()?;
    2012:	f7fe fcc8 	bl	9a6 <_ZN94_$LT$core..slice..iter..IterMut$LT$T$GT$$u20$as$u20$core..iter..traits..iterator..Iterator$GT$4next17h0bfa23dedee62d01E>
    2016:	9008      	str	r0, [sp, #32]
        Some(output)
    }

    #[inline]
    fn branch(self) -> ControlFlow<Self::Residual, Self::Output> {
        match self {
    2018:	9808      	ldr	r0, [sp, #32]
    201a:	b180      	cbz	r0, 203e <_ZN110_$LT$core..iter..adapters..enumerate..Enumerate$LT$I$GT$$u20$as$u20$core..iter..traits..iterator..Iterator$GT$4next17h8bae91d0affa80cfE+0x36>
    201c:	e7ff      	b.n	201e <_ZN110_$LT$core..iter..adapters..enumerate..Enumerate$LT$I$GT$$u20$as$u20$core..iter..traits..iterator..Iterator$GT$4next17h8bae91d0affa80cfE+0x16>
            Some(v) => ControlFlow::Continue(v),
    201e:	9804      	ldr	r0, [sp, #16]
    2020:	9908      	ldr	r1, [sp, #32]
    2022:	910b      	str	r1, [sp, #44]	@ 0x2c
    2024:	9107      	str	r1, [sp, #28]
    2026:	9907      	ldr	r1, [sp, #28]
    2028:	9101      	str	r1, [sp, #4]
    202a:	910c      	str	r1, [sp, #48]	@ 0x30
        let i = self.count;
    202c:	6881      	ldr	r1, [r0, #8]
    202e:	9102      	str	r1, [sp, #8]
    2030:	910d      	str	r1, [sp, #52]	@ 0x34
        self.count += 1;
    2032:	6881      	ldr	r1, [r0, #8]
    2034:	1c48      	adds	r0, r1, #1
    2036:	4288      	cmp	r0, r1
    2038:	9003      	str	r0, [sp, #12]
    203a:	d30f      	bcc.n	205c <_ZN110_$LT$core..iter..adapters..enumerate..Enumerate$LT$I$GT$$u20$as$u20$core..iter..traits..iterator..Iterator$GT$4next17h8bae91d0affa80cfE+0x54>
    203c:	e006      	b.n	204c <_ZN110_$LT$core..iter..adapters..enumerate..Enumerate$LT$I$GT$$u20$as$u20$core..iter..traits..iterator..Iterator$GT$4next17h8bae91d0affa80cfE+0x44>
    203e:	2000      	movs	r0, #0
// https://github.com/rust-lang/rust/issues/99940
impl<T> ops::FromResidual<Option<convert::Infallible>> for Option<T> {
    #[inline]
    fn from_residual(residual: Option<convert::Infallible>) -> Self {
        match residual {
            None => None,
    2040:	9006      	str	r0, [sp, #24]
        Some((i, a))
    }
    2042:	e7ff      	b.n	2044 <_ZN110_$LT$core..iter..adapters..enumerate..Enumerate$LT$I$GT$$u20$as$u20$core..iter..traits..iterator..Iterator$GT$4next17h8bae91d0affa80cfE+0x3c>
    2044:	9805      	ldr	r0, [sp, #20]
    2046:	9906      	ldr	r1, [sp, #24]
    2048:	b00e      	add	sp, #56	@ 0x38
    204a:	bd80      	pop	{r7, pc}
        self.count += 1;
    204c:	9801      	ldr	r0, [sp, #4]
    204e:	9902      	ldr	r1, [sp, #8]
    2050:	9a03      	ldr	r2, [sp, #12]
    2052:	9b04      	ldr	r3, [sp, #16]
    2054:	609a      	str	r2, [r3, #8]
        Some((i, a))
    2056:	9105      	str	r1, [sp, #20]
    2058:	9006      	str	r0, [sp, #24]
    }
    205a:	e7f3      	b.n	2044 <_ZN110_$LT$core..iter..adapters..enumerate..Enumerate$LT$I$GT$$u20$as$u20$core..iter..traits..iterator..Iterator$GT$4next17h8bae91d0affa80cfE+0x3c>
        self.count += 1;
    205c:	f24c 1090 	movw	r0, #49552	@ 0xc190
    2060:	f2c0 0000 	movt	r0, #0
    2064:	f009 f861 	bl	b12a <_ZN4core9panicking11panic_const24panic_const_add_overflow17he3ca46f2f2ec3678E>

00002068 <_ZN63_$LT$I$u20$as$u20$core..iter..traits..collect..IntoIterator$GT$9into_iter17h9839e29032e1f0c6E>:
    fn into_iter(self) -> I {
    2068:	b580      	push	{r7, lr}
    206a:	466f      	mov	r7, sp
    206c:	460b      	mov	r3, r1
    206e:	4601      	mov	r1, r0
        self
    2070:	6818      	ldr	r0, [r3, #0]
    2072:	685a      	ldr	r2, [r3, #4]
    2074:	689b      	ldr	r3, [r3, #8]
    2076:	608b      	str	r3, [r1, #8]
    2078:	604a      	str	r2, [r1, #4]
    207a:	6008      	str	r0, [r1, #0]
    }
    207c:	bd80      	pop	{r7, pc}

0000207e <_ZN15embassy_futures6select6select17hf183cd5b3a37f702E>:
///
/// This function returns a new future which polls all the futures.
/// When one of them completes, it will complete with its result value.
///
/// The other future is dropped.
pub fn select<A, B>(a: A, b: B) -> Select<A, B>
    207e:	b580      	push	{r7, lr}
    2080:	466f      	mov	r7, sp
    2082:	4694      	mov	ip, r2
    2084:	468e      	mov	lr, r1
    2086:	4601      	mov	r1, r0
where
    A: Future,
    B: Future,
{
    Select { a, b }
    2088:	f8de 0000 	ldr.w	r0, [lr]
    208c:	f8de 2004 	ldr.w	r2, [lr, #4]
    2090:	f8de 3008 	ldr.w	r3, [lr, #8]
    2094:	f8de e00c 	ldr.w	lr, [lr, #12]
    2098:	f8c1 e00c 	str.w	lr, [r1, #12]
    209c:	608b      	str	r3, [r1, #8]
    209e:	604a      	str	r2, [r1, #4]
    20a0:	6008      	str	r0, [r1, #0]
    20a2:	f8dc 0000 	ldr.w	r0, [ip]
    20a6:	f8dc 2004 	ldr.w	r2, [ip, #4]
    20aa:	f8dc 3008 	ldr.w	r3, [ip, #8]
    20ae:	f8dc c00c 	ldr.w	ip, [ip, #12]
    20b2:	f8c1 c01c 	str.w	ip, [r1, #28]
    20b6:	618b      	str	r3, [r1, #24]
    20b8:	614a      	str	r2, [r1, #20]
    20ba:	6108      	str	r0, [r1, #16]
}
    20bc:	bd80      	pop	{r7, pc}

000020be <_ZN59_$LT$F$u20$as$u20$core..future..into_future..IntoFuture$GT$11into_future17h3559e0cd8cd639c6E>:
    fn into_future(self) -> Self::IntoFuture {
    20be:	b580      	push	{r7, lr}
    20c0:	466f      	mov	r7, sp
        self
    20c2:	e8b1 500c 	ldmia.w	r1!, {r2, r3, ip, lr}
    20c6:	e8a0 500c 	stmia.w	r0!, {r2, r3, ip, lr}
    20ca:	e891 500c 	ldmia.w	r1, {r2, r3, ip, lr}
    20ce:	e880 500c 	stmia.w	r0, {r2, r3, ip, lr}
    }
    20d2:	bd80      	pop	{r7, pc}

000020d4 <_ZN93_$LT$embassy_futures..select..Select$LT$A$C$B$GT$$u20$as$u20$core..future..future..Future$GT$4poll17hfc65bf7486977cc1E>:
    A: Future,
    B: Future,
{
    type Output = Either<A::Output, B::Output>;

    fn poll(self: Pin<&mut Self>, cx: &mut Context<'_>) -> Poll<Self::Output> {
    20d4:	b580      	push	{r7, lr}
    20d6:	466f      	mov	r7, sp
    20d8:	b08c      	sub	sp, #48	@ 0x30
    20da:	9100      	str	r1, [sp, #0]
    20dc:	9003      	str	r0, [sp, #12]
    20de:	9104      	str	r1, [sp, #16]
    20e0:	900b      	str	r0, [sp, #44]	@ 0x2c
        let this = unsafe { self.get_unchecked_mut() };
    20e2:	9006      	str	r0, [sp, #24]
    20e4:	900a      	str	r0, [sp, #40]	@ 0x28
        let a = unsafe { Pin::new_unchecked(&mut this.a) };
    20e6:	9007      	str	r0, [sp, #28]
        let b = unsafe { Pin::new_unchecked(&mut this.b) };
    20e8:	f100 0210 	add.w	r2, r0, #16
    20ec:	4613      	mov	r3, r2
    20ee:	9301      	str	r3, [sp, #4]
    20f0:	9209      	str	r2, [sp, #36]	@ 0x24
    20f2:	9208      	str	r2, [sp, #32]
        if let Poll::Ready(x) = a.poll(cx) {
    20f4:	f000 fc39 	bl	296a <_ZN11embassy_nrf6gpiote42_$LT$impl$u20$embassy_nrf..gpio..Input$GT$12wait_for_low28_$u7b$$u7b$closure$u7d$$u7d$17h8ee9a3f34df9471fE>
    20f8:	b130      	cbz	r0, 2108 <_ZN93_$LT$embassy_futures..select..Select$LT$A$C$B$GT$$u20$as$u20$core..future..future..Future$GT$4poll17hfc65bf7486977cc1E+0x34>
    20fa:	e7ff      	b.n	20fc <_ZN93_$LT$embassy_futures..select..Select$LT$A$C$B$GT$$u20$as$u20$core..future..future..Future$GT$4poll17hfc65bf7486977cc1E+0x28>
            return Poll::Ready(Either::First(x));
        }
        if let Poll::Ready(x) = b.poll(cx) {
    20fc:	9900      	ldr	r1, [sp, #0]
    20fe:	9801      	ldr	r0, [sp, #4]
    2100:	f000 fc33 	bl	296a <_ZN11embassy_nrf6gpiote42_$LT$impl$u20$embassy_nrf..gpio..Input$GT$12wait_for_low28_$u7b$$u7b$closure$u7d$$u7d$17h8ee9a3f34df9471fE>
    2104:	b960      	cbnz	r0, 2120 <_ZN93_$LT$embassy_futures..select..Select$LT$A$C$B$GT$$u20$as$u20$core..future..future..Future$GT$4poll17hfc65bf7486977cc1E+0x4c>
    2106:	e00f      	b.n	2128 <_ZN93_$LT$embassy_futures..select..Select$LT$A$C$B$GT$$u20$as$u20$core..future..future..Future$GT$4poll17hfc65bf7486977cc1E+0x54>
    2108:	2000      	movs	r0, #0
            return Poll::Ready(Either::First(x));
    210a:	f807 0c26 	strb.w	r0, [r7, #-38]
    210e:	f817 0c26 	ldrb.w	r0, [r7, #-38]
    2112:	f807 0c27 	strb.w	r0, [r7, #-39]
    2116:	e7ff      	b.n	2118 <_ZN93_$LT$embassy_futures..select..Select$LT$A$C$B$GT$$u20$as$u20$core..future..future..Future$GT$4poll17hfc65bf7486977cc1E+0x44>
            return Poll::Ready(Either::Second(x));
        }
        Poll::Pending
    }
    2118:	f817 0c27 	ldrb.w	r0, [r7, #-39]
    211c:	b00c      	add	sp, #48	@ 0x30
    211e:	bd80      	pop	{r7, pc}
    2120:	2002      	movs	r0, #2
        Poll::Pending
    2122:	f807 0c27 	strb.w	r0, [r7, #-39]
    }
    2126:	e7f7      	b.n	2118 <_ZN93_$LT$embassy_futures..select..Select$LT$A$C$B$GT$$u20$as$u20$core..future..future..Future$GT$4poll17hfc65bf7486977cc1E+0x44>
    2128:	2001      	movs	r0, #1
            return Poll::Ready(Either::Second(x));
    212a:	f807 0c25 	strb.w	r0, [r7, #-37]
    212e:	f817 0c25 	ldrb.w	r0, [r7, #-37]
    2132:	f807 0c27 	strb.w	r0, [r7, #-39]
    2136:	e7ef      	b.n	2118 <_ZN93_$LT$embassy_futures..select..Select$LT$A$C$B$GT$$u20$as$u20$core..future..future..Future$GT$4poll17hfc65bf7486977cc1E+0x44>

00002138 <_ZN59_$LT$F$u20$as$u20$core..future..into_future..IntoFuture$GT$11into_future17h4688f24b45962794E>:
    fn into_future(self) -> Self::IntoFuture {
    2138:	b580      	push	{r7, lr}
    213a:	466f      	mov	r7, sp
    213c:	22a0      	movs	r2, #160	@ 0xa0
        self
    213e:	f009 fa7c 	bl	b63a <__aeabi_memcpy8>
    }
    2142:	bd80      	pop	{r7, pc}

00002144 <_ZN59_$LT$F$u20$as$u20$core..future..into_future..IntoFuture$GT$11into_future17h56932797be1dea54E>:
    fn into_future(self) -> Self::IntoFuture {
    2144:	b580      	push	{r7, lr}
    2146:	466f      	mov	r7, sp
    2148:	22a0      	movs	r2, #160	@ 0xa0
        self
    214a:	f009 fa76 	bl	b63a <__aeabi_memcpy8>
    }
    214e:	bd80      	pop	{r7, pc}

00002150 <_ZN59_$LT$F$u20$as$u20$core..future..into_future..IntoFuture$GT$11into_future17h904069b77dba90d6E>:
    fn into_future(self) -> Self::IntoFuture {
    2150:	b580      	push	{r7, lr}
    2152:	466f      	mov	r7, sp
    2154:	2298      	movs	r2, #152	@ 0x98
        self
    2156:	f009 fa70 	bl	b63a <__aeabi_memcpy8>
    }
    215a:	bd80      	pop	{r7, pc}

0000215c <_ZN30microbit_async_display_example6button17show_button_press28_$u7b$$u7b$closure$u7d$$u7d$17heb53b11ae83934dcE>:
///
/// # Example
/// ```ignore
/// show_button_press(&mut display, "A", ARROW_LEFT).await;
/// ```
async fn show_button_press(display: &mut LedMatrix, button_name: &str, arrow: Frame<5, 5>) {
    215c:	b5f0      	push	{r4, r5, r6, r7, lr}
    215e:	af03      	add	r7, sp, #12
    2160:	e92d 0b00 	stmdb	sp!, {r8, r9, fp}
    2164:	b0d2      	sub	sp, #328	@ 0x148
    2166:	9107      	str	r1, [sp, #28]
    2168:	9009      	str	r0, [sp, #36]	@ 0x24
    216a:	9143      	str	r1, [sp, #268]	@ 0x10c
    216c:	9809      	ldr	r0, [sp, #36]	@ 0x24
    216e:	f890 0094 	ldrb.w	r0, [r0, #148]	@ 0x94
    2172:	4601      	mov	r1, r0
    2174:	9108      	str	r1, [sp, #32]
    2176:	b130      	cbz	r0, 2186 <_ZN30microbit_async_display_example6button17show_button_press28_$u7b$$u7b$closure$u7d$$u7d$17heb53b11ae83934dcE+0x2a>
    2178:	e7ff      	b.n	217a <_ZN30microbit_async_display_example6button17show_button_press28_$u7b$$u7b$closure$u7d$$u7d$17heb53b11ae83934dcE+0x1e>
    217a:	9808      	ldr	r0, [sp, #32]
    217c:	2801      	cmp	r0, #1
    217e:	d056      	beq.n	222e <_ZN30microbit_async_display_example6button17show_button_press28_$u7b$$u7b$closure$u7d$$u7d$17heb53b11ae83934dcE+0xd2>
    2180:	e7ff      	b.n	2182 <_ZN30microbit_async_display_example6button17show_button_press28_$u7b$$u7b$closure$u7d$$u7d$17heb53b11ae83934dcE+0x26>
    2182:	e058      	b.n	2236 <_ZN30microbit_async_display_example6button17show_button_press28_$u7b$$u7b$closure$u7d$$u7d$17heb53b11ae83934dcE+0xda>
    2184:	defe      	udf	#254	@ 0xfe
    2186:	9807      	ldr	r0, [sp, #28]
    2188:	9042      	str	r0, [sp, #264]	@ 0x108
    218a:	9809      	ldr	r0, [sp, #36]	@ 0x24
    218c:	f8d0 0090 	ldr.w	r0, [r0, #144]	@ 0x90
    2190:	9004      	str	r0, [sp, #16]
    2192:	9045      	str	r0, [sp, #276]	@ 0x114
    2194:	9909      	ldr	r1, [sp, #36]	@ 0x24
    2196:	680a      	ldr	r2, [r1, #0]
    2198:	6848      	ldr	r0, [r1, #4]
    219a:	630a      	str	r2, [r1, #48]	@ 0x30
    219c:	6348      	str	r0, [r1, #52]	@ 0x34
    219e:	9809      	ldr	r0, [sp, #36]	@ 0x24
    21a0:	f100 0108 	add.w	r1, r0, #8
    21a4:	a80b      	add	r0, sp, #44	@ 0x2c
    21a6:	9003      	str	r0, [sp, #12]
    21a8:	e8b1 501c 	ldmia.w	r1!, {r2, r3, r4, ip, lr}
    21ac:	e8a0 501c 	stmia.w	r0!, {r2, r3, r4, ip, lr}
    21b0:	e891 501c 	ldmia.w	r1, {r2, r3, r4, ip, lr}
    21b4:	e880 501c 	stmia.w	r0, {r2, r3, r4, ip, lr}
    defmt::info!("{} pressed", button_name);
    21b8:	9809      	ldr	r0, [sp, #36]	@ 0x24
    21ba:	3030      	adds	r0, #48	@ 0x30
    21bc:	9002      	str	r0, [sp, #8]
    21be:	9046      	str	r0, [sp, #280]	@ 0x118
    21c0:	f240 0004 	movw	r0, #4
    21c4:	f2c0 0000 	movt	r0, #0
    21c8:	f007 fe0b 	bl	9de2 <_ZN5defmt6export9make_istr17h5fd4c9793e25184eE>
    21cc:	f8ad 0056 	strh.w	r0, [sp, #86]	@ 0x56
    21d0:	f10d 0056 	add.w	r0, sp, #86	@ 0x56
    21d4:	f007 fe64 	bl	9ea0 <_ZN5defmt6export18acquire_and_header17h16cffd26e27c4a0bE>
    21d8:	9802      	ldr	r0, [sp, #8]
    21da:	f7ff fd57 	bl	1c8c <_ZN5defmt6export3fmt17hb6bcda53adefe2a9E>
    _defmt_release()
    21de:	f006 fa56 	bl	868e <_defmt_release>
    21e2:	2001      	movs	r0, #1
    21e4:	2100      	movs	r1, #0
    display.display(arrow, Duration::from_secs(1)).await;
    21e6:	f004 fb24 	bl	6832 <_ZN12embassy_time8duration8Duration9from_secs17h0d65bcb0ec475bedE>
    21ea:	f8dd e00c 	ldr.w	lr, [sp, #12]
    21ee:	468c      	mov	ip, r1
    21f0:	9904      	ldr	r1, [sp, #16]
    21f2:	aa47      	add	r2, sp, #284	@ 0x11c
    21f4:	4613      	mov	r3, r2
    21f6:	e8be 0370 	ldmia.w	lr!, {r4, r5, r6, r8, r9}
    21fa:	e8a3 0370 	stmia.w	r3!, {r4, r5, r6, r8, r9}
    21fe:	e89e 0370 	ldmia.w	lr, {r4, r5, r6, r8, r9}
    2202:	e883 0370 	stmia.w	r3, {r4, r5, r6, r8, r9}
    2206:	466b      	mov	r3, sp
    2208:	f8c3 c004 	str.w	ip, [r3, #4]
    220c:	6018      	str	r0, [r3, #0]
    220e:	a82c      	add	r0, sp, #176	@ 0xb0
    2210:	9005      	str	r0, [sp, #20]
    2212:	f7fe fd8d 	bl	d30 <_ZN30microbit_async_display_example7display26LedMatrix$LT$P$C$_$C$_$GT$7display17h2bca18fd9dbaada7E>
    2216:	9905      	ldr	r1, [sp, #20]
    2218:	a816      	add	r0, sp, #88	@ 0x58
    221a:	9006      	str	r0, [sp, #24]
    221c:	f7fe fc21 	bl	a62 <_ZN59_$LT$F$u20$as$u20$core..future..into_future..IntoFuture$GT$11into_future17h896d1013a979303dE>
    2220:	9906      	ldr	r1, [sp, #24]
    2222:	9809      	ldr	r0, [sp, #36]	@ 0x24
    2224:	3038      	adds	r0, #56	@ 0x38
    2226:	2258      	movs	r2, #88	@ 0x58
    2228:	f009 fa07 	bl	b63a <__aeabi_memcpy8>
    222c:	e006      	b.n	223c <_ZN30microbit_async_display_example6button17show_button_press28_$u7b$$u7b$closure$u7d$$u7d$17heb53b11ae83934dcE+0xe0>
    222e:	2000      	movs	r0, #0
async fn show_button_press(display: &mut LedMatrix, button_name: &str, arrow: Frame<5, 5>) {
    2230:	2800      	cmp	r0, #0
    2232:	d1fc      	bne.n	222e <_ZN30microbit_async_display_example6button17show_button_press28_$u7b$$u7b$closure$u7d$$u7d$17heb53b11ae83934dcE+0xd2>
    2234:	e00a      	b.n	224c <_ZN30microbit_async_display_example6button17show_button_press28_$u7b$$u7b$closure$u7d$$u7d$17heb53b11ae83934dcE+0xf0>
    display.display(arrow, Duration::from_secs(1)).await;
    2236:	9807      	ldr	r0, [sp, #28]
    2238:	9042      	str	r0, [sp, #264]	@ 0x108
    223a:	e7ff      	b.n	223c <_ZN30microbit_async_display_example6button17show_button_press28_$u7b$$u7b$closure$u7d$$u7d$17heb53b11ae83934dcE+0xe0>
    223c:	9809      	ldr	r0, [sp, #36]	@ 0x24
    223e:	3038      	adds	r0, #56	@ 0x38
    2240:	9051      	str	r0, [sp, #324]	@ 0x144
    2242:	9942      	ldr	r1, [sp, #264]	@ 0x108
    2244:	f7fe fd94 	bl	d70 <_ZN30microbit_async_display_example7display26LedMatrix$LT$P$C$_$C$_$GT$7display28_$u7b$$u7b$closure$u7d$$u7d$17he7ca901caa01f5a9E>
    2248:	b930      	cbnz	r0, 2258 <_ZN30microbit_async_display_example6button17show_button_press28_$u7b$$u7b$closure$u7d$$u7d$17heb53b11ae83934dcE+0xfc>
    224a:	e012      	b.n	2272 <_ZN30microbit_async_display_example6button17show_button_press28_$u7b$$u7b$closure$u7d$$u7d$17heb53b11ae83934dcE+0x116>
async fn show_button_press(display: &mut LedMatrix, button_name: &str, arrow: Frame<5, 5>) {
    224c:	f24c 10b0 	movw	r0, #49584	@ 0xc1b0
    2250:	f2c0 0000 	movt	r0, #0
    2254:	f008 ffee 	bl	b234 <_ZN4core9panicking11panic_const28panic_const_async_fn_resumed17hf08d9c560f63ded1E>
    2258:	2001      	movs	r0, #1
    display.display(arrow, Duration::from_secs(1)).await;
    225a:	f88d 002b 	strb.w	r0, [sp, #43]	@ 0x2b
    225e:	9909      	ldr	r1, [sp, #36]	@ 0x24
    2260:	2003      	movs	r0, #3
    2262:	f881 0094 	strb.w	r0, [r1, #148]	@ 0x94
    2266:	f89d 002b 	ldrb.w	r0, [sp, #43]	@ 0x2b
    226a:	b052      	add	sp, #328	@ 0x148
    226c:	e8bd 0b00 	ldmia.w	sp!, {r8, r9, fp}
    2270:	bdf0      	pop	{r4, r5, r6, r7, pc}
    2272:	9809      	ldr	r0, [sp, #36]	@ 0x24
    2274:	3038      	adds	r0, #56	@ 0x38
    2276:	f000 fa71 	bl	275c <_ZN4core3ptr162drop_in_place$LT$microbit_async_display_example..display..LedMatrix$LT$embassy_nrf..gpio..Output$C$5_usize$C$5_usize$GT$..display..$u7b$$u7b$closure$u7d$$u7d$$GT$17hbd06fe710c393648E>
    227a:	2000      	movs	r0, #0
}
    227c:	f88d 002b 	strb.w	r0, [sp, #43]	@ 0x2b
    2280:	9909      	ldr	r1, [sp, #36]	@ 0x24
    2282:	2001      	movs	r0, #1
    2284:	f881 0094 	strb.w	r0, [r1, #148]	@ 0x94
    2288:	f89d 002b 	ldrb.w	r0, [sp, #43]	@ 0x2b
    228c:	b052      	add	sp, #328	@ 0x148
    228e:	e8bd 0b00 	ldmia.w	sp!, {r8, r9, fp}
    2292:	bdf0      	pop	{r4, r5, r6, r7, pc}

00002294 <_ZN30microbit_async_display_example6button21handle_button_a_press28_$u7b$$u7b$closure$u7d$$u7d$17h0cdeba80cc131c84E>:
/// ```ignore
/// if button_a_pressed {
///     handle_button_a_press(&mut display).await;
/// }
/// ```
pub async fn handle_button_a_press(display: &mut LedMatrix) {
    2294:	b5f0      	push	{r4, r5, r6, r7, lr}
    2296:	af03      	add	r7, sp, #12
    2298:	f84d bd04 	str.w	fp, [sp, #-4]!
    229c:	b0e4      	sub	sp, #400	@ 0x190
    229e:	9104      	str	r1, [sp, #16]
    22a0:	9006      	str	r0, [sp, #24]
    22a2:	9156      	str	r1, [sp, #344]	@ 0x158
    22a4:	9806      	ldr	r0, [sp, #24]
    22a6:	f890 009c 	ldrb.w	r0, [r0, #156]	@ 0x9c
    22aa:	4601      	mov	r1, r0
    22ac:	9105      	str	r1, [sp, #20]
    22ae:	b130      	cbz	r0, 22be <_ZN30microbit_async_display_example6button21handle_button_a_press28_$u7b$$u7b$closure$u7d$$u7d$17h0cdeba80cc131c84E+0x2a>
    22b0:	e7ff      	b.n	22b2 <_ZN30microbit_async_display_example6button21handle_button_a_press28_$u7b$$u7b$closure$u7d$$u7d$17h0cdeba80cc131c84E+0x1e>
    22b2:	9805      	ldr	r0, [sp, #20]
    22b4:	2801      	cmp	r0, #1
    22b6:	d02c      	beq.n	2312 <_ZN30microbit_async_display_example6button21handle_button_a_press28_$u7b$$u7b$closure$u7d$$u7d$17h0cdeba80cc131c84E+0x7e>
    22b8:	e7ff      	b.n	22ba <_ZN30microbit_async_display_example6button21handle_button_a_press28_$u7b$$u7b$closure$u7d$$u7d$17h0cdeba80cc131c84E+0x26>
    22ba:	e02e      	b.n	231a <_ZN30microbit_async_display_example6button21handle_button_a_press28_$u7b$$u7b$closure$u7d$$u7d$17h0cdeba80cc131c84E+0x86>
    22bc:	defe      	udf	#254	@ 0xfe
    22be:	9804      	ldr	r0, [sp, #16]
    22c0:	9055      	str	r0, [sp, #340]	@ 0x154
    22c2:	9806      	ldr	r0, [sp, #24]
    22c4:	f8d0 1098 	ldr.w	r1, [r0, #152]	@ 0x98
    22c8:	9158      	str	r1, [sp, #352]	@ 0x160
    show_button_press(display, "A", ARROW_LEFT).await;
    22ca:	f24c 13c4 	movw	r3, #49604	@ 0xc1c4
    22ce:	f2c0 0300 	movt	r3, #0
    22d2:	a859      	add	r0, sp, #356	@ 0x164
    22d4:	4602      	mov	r2, r0
    22d6:	e8b3 5070 	ldmia.w	r3!, {r4, r5, r6, ip, lr}
    22da:	e8a2 5070 	stmia.w	r2!, {r4, r5, r6, ip, lr}
    22de:	e893 5070 	ldmia.w	r3, {r4, r5, r6, ip, lr}
    22e2:	e882 5070 	stmia.w	r2, {r4, r5, r6, ip, lr}
    22e6:	466a      	mov	r2, sp
    22e8:	6010      	str	r0, [r2, #0]
    22ea:	f24c 12c0 	movw	r2, #49600	@ 0xc1c0
    22ee:	f2c0 0200 	movt	r2, #0
    22f2:	a82e      	add	r0, sp, #184	@ 0xb8
    22f4:	9002      	str	r0, [sp, #8]
    22f6:	2301      	movs	r3, #1
    22f8:	f000 fd67 	bl	2dca <_ZN30microbit_async_display_example6button17show_button_press17h858d11b7128cd875E>
    22fc:	9902      	ldr	r1, [sp, #8]
    22fe:	a808      	add	r0, sp, #32
    2300:	9003      	str	r0, [sp, #12]
    2302:	f7ff ff25 	bl	2150 <_ZN59_$LT$F$u20$as$u20$core..future..into_future..IntoFuture$GT$11into_future17h904069b77dba90d6E>
    2306:	9903      	ldr	r1, [sp, #12]
    2308:	9806      	ldr	r0, [sp, #24]
    230a:	2298      	movs	r2, #152	@ 0x98
    230c:	f009 f995 	bl	b63a <__aeabi_memcpy8>
    2310:	e006      	b.n	2320 <_ZN30microbit_async_display_example6button21handle_button_a_press28_$u7b$$u7b$closure$u7d$$u7d$17h0cdeba80cc131c84E+0x8c>
    2312:	2000      	movs	r0, #0
pub async fn handle_button_a_press(display: &mut LedMatrix) {
    2314:	2800      	cmp	r0, #0
    2316:	d1fc      	bne.n	2312 <_ZN30microbit_async_display_example6button21handle_button_a_press28_$u7b$$u7b$closure$u7d$$u7d$17h0cdeba80cc131c84E+0x7e>
    2318:	e009      	b.n	232e <_ZN30microbit_async_display_example6button21handle_button_a_press28_$u7b$$u7b$closure$u7d$$u7d$17h0cdeba80cc131c84E+0x9a>
    show_button_press(display, "A", ARROW_LEFT).await;
    231a:	9804      	ldr	r0, [sp, #16]
    231c:	9055      	str	r0, [sp, #340]	@ 0x154
    231e:	e7ff      	b.n	2320 <_ZN30microbit_async_display_example6button21handle_button_a_press28_$u7b$$u7b$closure$u7d$$u7d$17h0cdeba80cc131c84E+0x8c>
    2320:	9806      	ldr	r0, [sp, #24]
    2322:	9063      	str	r0, [sp, #396]	@ 0x18c
    2324:	9955      	ldr	r1, [sp, #340]	@ 0x154
    2326:	f7ff ff19 	bl	215c <_ZN30microbit_async_display_example6button17show_button_press28_$u7b$$u7b$closure$u7d$$u7d$17heb53b11ae83934dcE>
    232a:	b930      	cbnz	r0, 233a <_ZN30microbit_async_display_example6button21handle_button_a_press28_$u7b$$u7b$closure$u7d$$u7d$17h0cdeba80cc131c84E+0xa6>
    232c:	e012      	b.n	2354 <_ZN30microbit_async_display_example6button21handle_button_a_press28_$u7b$$u7b$closure$u7d$$u7d$17h0cdeba80cc131c84E+0xc0>
pub async fn handle_button_a_press(display: &mut LedMatrix) {
    232e:	f24c 10ec 	movw	r0, #49644	@ 0xc1ec
    2332:	f2c0 0000 	movt	r0, #0
    2336:	f008 ff7d 	bl	b234 <_ZN4core9panicking11panic_const28panic_const_async_fn_resumed17hf08d9c560f63ded1E>
    233a:	2001      	movs	r0, #1
    show_button_press(display, "A", ARROW_LEFT).await;
    233c:	f88d 001f 	strb.w	r0, [sp, #31]
    2340:	9906      	ldr	r1, [sp, #24]
    2342:	2003      	movs	r0, #3
    2344:	f881 009c 	strb.w	r0, [r1, #156]	@ 0x9c
    2348:	f89d 001f 	ldrb.w	r0, [sp, #31]
    234c:	b064      	add	sp, #400	@ 0x190
    234e:	f85d bb04 	ldr.w	fp, [sp], #4
    2352:	bdf0      	pop	{r4, r5, r6, r7, pc}
    2354:	9806      	ldr	r0, [sp, #24]
    2356:	f000 f94d 	bl	25f4 <_ZN4core3ptr107drop_in_place$LT$microbit_async_display_example..button..show_button_press..$u7b$$u7b$closure$u7d$$u7d$$GT$17h71455d588d482409E>
    235a:	2000      	movs	r0, #0
}
    235c:	f88d 001f 	strb.w	r0, [sp, #31]
    2360:	9906      	ldr	r1, [sp, #24]
    2362:	2001      	movs	r0, #1
    2364:	f881 009c 	strb.w	r0, [r1, #156]	@ 0x9c
    2368:	f89d 001f 	ldrb.w	r0, [sp, #31]
    236c:	b064      	add	sp, #400	@ 0x190
    236e:	f85d bb04 	ldr.w	fp, [sp], #4
    2372:	bdf0      	pop	{r4, r5, r6, r7, pc}

00002374 <_ZN30microbit_async_display_example6button21handle_button_b_press28_$u7b$$u7b$closure$u7d$$u7d$17hd71b09cbe5d58a5dE>:
/// ```ignore
/// if button_b_pressed {
///     handle_button_b_press(&mut display).await;
/// }
/// ```
pub async fn handle_button_b_press(display: &mut LedMatrix) {
    2374:	b5f0      	push	{r4, r5, r6, r7, lr}
    2376:	af03      	add	r7, sp, #12
    2378:	f84d bd04 	str.w	fp, [sp, #-4]!
    237c:	b0e4      	sub	sp, #400	@ 0x190
    237e:	9104      	str	r1, [sp, #16]
    2380:	9006      	str	r0, [sp, #24]
    2382:	9156      	str	r1, [sp, #344]	@ 0x158
    2384:	9806      	ldr	r0, [sp, #24]
    2386:	f890 009c 	ldrb.w	r0, [r0, #156]	@ 0x9c
    238a:	4601      	mov	r1, r0
    238c:	9105      	str	r1, [sp, #20]
    238e:	b130      	cbz	r0, 239e <_ZN30microbit_async_display_example6button21handle_button_b_press28_$u7b$$u7b$closure$u7d$$u7d$17hd71b09cbe5d58a5dE+0x2a>
    2390:	e7ff      	b.n	2392 <_ZN30microbit_async_display_example6button21handle_button_b_press28_$u7b$$u7b$closure$u7d$$u7d$17hd71b09cbe5d58a5dE+0x1e>
    2392:	9805      	ldr	r0, [sp, #20]
    2394:	2801      	cmp	r0, #1
    2396:	d02c      	beq.n	23f2 <_ZN30microbit_async_display_example6button21handle_button_b_press28_$u7b$$u7b$closure$u7d$$u7d$17hd71b09cbe5d58a5dE+0x7e>
    2398:	e7ff      	b.n	239a <_ZN30microbit_async_display_example6button21handle_button_b_press28_$u7b$$u7b$closure$u7d$$u7d$17hd71b09cbe5d58a5dE+0x26>
    239a:	e02e      	b.n	23fa <_ZN30microbit_async_display_example6button21handle_button_b_press28_$u7b$$u7b$closure$u7d$$u7d$17hd71b09cbe5d58a5dE+0x86>
    239c:	defe      	udf	#254	@ 0xfe
    239e:	9804      	ldr	r0, [sp, #16]
    23a0:	9055      	str	r0, [sp, #340]	@ 0x154
    23a2:	9806      	ldr	r0, [sp, #24]
    23a4:	f8d0 1098 	ldr.w	r1, [r0, #152]	@ 0x98
    23a8:	9158      	str	r1, [sp, #352]	@ 0x160
    show_button_press(display, "B", ARROW_RIGHT).await;
    23aa:	f24c 2300 	movw	r3, #49664	@ 0xc200
    23ae:	f2c0 0300 	movt	r3, #0
    23b2:	a859      	add	r0, sp, #356	@ 0x164
    23b4:	4602      	mov	r2, r0
    23b6:	e8b3 5070 	ldmia.w	r3!, {r4, r5, r6, ip, lr}
    23ba:	e8a2 5070 	stmia.w	r2!, {r4, r5, r6, ip, lr}
    23be:	e893 5070 	ldmia.w	r3, {r4, r5, r6, ip, lr}
    23c2:	e882 5070 	stmia.w	r2, {r4, r5, r6, ip, lr}
    23c6:	466a      	mov	r2, sp
    23c8:	6010      	str	r0, [r2, #0]
    23ca:	f24c 12fc 	movw	r2, #49660	@ 0xc1fc
    23ce:	f2c0 0200 	movt	r2, #0
    23d2:	a82e      	add	r0, sp, #184	@ 0xb8
    23d4:	9002      	str	r0, [sp, #8]
    23d6:	2301      	movs	r3, #1
    23d8:	f000 fcf7 	bl	2dca <_ZN30microbit_async_display_example6button17show_button_press17h858d11b7128cd875E>
    23dc:	9902      	ldr	r1, [sp, #8]
    23de:	a808      	add	r0, sp, #32
    23e0:	9003      	str	r0, [sp, #12]
    23e2:	f7ff feb5 	bl	2150 <_ZN59_$LT$F$u20$as$u20$core..future..into_future..IntoFuture$GT$11into_future17h904069b77dba90d6E>
    23e6:	9903      	ldr	r1, [sp, #12]
    23e8:	9806      	ldr	r0, [sp, #24]
    23ea:	2298      	movs	r2, #152	@ 0x98
    23ec:	f009 f925 	bl	b63a <__aeabi_memcpy8>
    23f0:	e006      	b.n	2400 <_ZN30microbit_async_display_example6button21handle_button_b_press28_$u7b$$u7b$closure$u7d$$u7d$17hd71b09cbe5d58a5dE+0x8c>
    23f2:	2000      	movs	r0, #0
pub async fn handle_button_b_press(display: &mut LedMatrix) {
    23f4:	2800      	cmp	r0, #0
