00000013 00000001 N _defmt_encoding_ = rzcobs
00000012 00000001 N _defmt_version_ = 4
20000214 00000001 B _EMBASSY_DEVICE_PERIPHERALS
20000215 00000001 b _ZN11panic_probe3imp5panic8PANICKED17h2eda74b172390a8dE
0000e66c 00000001 r .Lanon.12cc1d9fe6f1b1b4c9d72ed1b08691ce.15
0000c1c0 00000001 r .Lanon.2b07d116ccc34a249efb8a88324ec3c3.2
0000c1fc 00000001 r .Lanon.2b07d116ccc34a249efb8a88324ec3c3.5
0000c95d 00000001 r .Lanon.c7ee460fbe5e5cafa85acbbcf56ab5fc.75
0000bd47 00000001 r .Lanon.e5db0d0660bc5904c97d5917f5a678eb.2
00000001 00000001 N {"package":"defmt","tag":"defmt_prim","data":"{=__internal_Display}","disambiguator":"14158116662542268607","crate_name":"defmt"}
00000002 00000001 N {"package":"defmt","tag":"defmt_prim","data":"{=str}","disambiguator":"3063195899925645111","crate_name":"defmt"}
00000011 00000001 N {"package":"embassy-executor","tag":"defmt_derived","data":"Busy","disambiguator":"15755438505458176783","crate_name":"embassy_executor"}
0000000a 00000001 N {"package":"embassy-executor","tag":"defmt_error","data":"panicked at 'embassy-executor: task arena is full. You must increase the arena size, see the documentation for details: https://docs.embassy.dev/embassy-executor/'","disambiguator":"12769001351148165237","crate_name":"embassy_executor"}
00000008 00000001 N {"package":"embassy-executor","tag":"defmt_error","data":"panicked at 'Found waker not created by the Embassy executor. `embassy_time::Timer` only works with the Embassy executor.'","disambiguator":"7201988413531162864","crate_name":"embassy_executor"}
00000009 00000001 N {"package":"embassy-executor","tag":"defmt_error","data":"panicked at 'unwrap failed: self.spawn(token)'\nerror: `{:?}`","disambiguator":"10245228366164241577","crate_name":"embassy_executor"}
00000006 00000001 N {"package":"embassy-nrf","tag":"defmt_error","data":"panicked at 'init called more than once!'","disambiguator":"7216352146720473471","crate_name":"embassy_nrf"}
00000005 00000001 N {"package":"embassy-nrf","tag":"defmt_warn","data":"You have requested enabling chip reset functionality on the reset pin, by not enabling the Cargo feature `reset-pin-as-gpio`.\nHowever, UICR is already programmed to some other setting, and can't be changed without erasing it.\nTo fix this, erase UICR manually, for example using `probe-rs erase` or `nrfjprog --eraseuicr`.","disambiguator":"2652817362596959516","crate_name":"embassy_nrf"}
00000010 00000001 N {"package":"embassy-time","tag":"defmt_timestamp","data":"{=u64:us}","disambiguator":"909995720420440434","crate_name":"embassy_time"}
00000004 00000001 N {"package":"microbit-async-display-example","tag":"defmt_info","data":"{} pressed","disambiguator":"8509345465340642579","crate_name":"microbit_async_display_example"}
00000003 00000001 N {"package":"microbit-async-display-example","tag":"defmt_info","data":"Application started, press buttons!","disambiguator":"13900786795932843783","crate_name":"microbit_async_display_example"}
00000007 00000001 N {"package":"panic-probe","tag":"defmt_error","data":"{}","disambiguator":"3281125884690968605","crate_name":"panic_probe"}
0000eb5c 00000002 r .Lanon.2642cffa3caea40eecf91712b6f521b7.224
0000ebc8 00000002 r .Lanon.2642cffa3caea40eecf91712b6f521b7.255
0000ebdc 00000002 r .Lanon.2642cffa3caea40eecf91712b6f521b7.294
0000a2ca 00000004 T __cpsid
0000a2ce 00000004 T __cpsie
0000000c 00000004 N __DEFMT_MARKER_TIMESTAMP_WAS_DEFINED
0000a2d8 00000004 T __nop
00000004 00000004 R __RESET_VECTOR
0000a2e2 00000004 T __udf
20000050 00000004 b _ZN30microbit_async_display_example14__embassy_main4POOL17h3578da521cc22191E
20000216 00000005 b _ZN9defmt_rtt11RTT_ENCODER17h239642922f2696c5E
0000c3bc 00000005 r .Lanon.e0ee941c3840e989dd2b24832ea9b099.6
0000a2d2 00000006 T __dsb
0000a2dc 00000006 T __primask_r
00004d8a 00000006 t _ZN11embassy_nrf4chip11peripherals10GPIOTE_CH05steal17h63baeea7506715a7E
00004d90 00000006 t _ZN11embassy_nrf4chip11peripherals10GPIOTE_CH15steal17hcb50899e49745a58E
00004d96 00000006 t _ZN11embassy_nrf4chip11peripherals10GPIOTE_CH25steal17h8aa85f5d207dbf03E
00004d9c 00000006 t _ZN11embassy_nrf4chip11peripherals10GPIOTE_CH35steal17h8442212c5053cef4E
00004da2 00000006 t _ZN11embassy_nrf4chip11peripherals10GPIOTE_CH45steal17he95f3d348d9cb6a3E
00004da8 00000006 t _ZN11embassy_nrf4chip11peripherals10GPIOTE_CH55steal17hd8f9f1624922b683E
00004dae 00000006 t _ZN11embassy_nrf4chip11peripherals10GPIOTE_CH65steal17hd9217712c04ed1cfE
00004db4 00000006 t _ZN11embassy_nrf4chip11peripherals10GPIOTE_CH75steal17h7e988b98d559527bE
00004e7a 00000006 t _ZN11embassy_nrf4chip11peripherals10PPI_GROUP05steal17he6d6b977de0e042eE
00004e80 00000006 t _ZN11embassy_nrf4chip11peripherals10PPI_GROUP15steal17h18e588d571020b18E
00004e86 00000006 t _ZN11embassy_nrf4chip11peripherals10PPI_GROUP25steal17hc5da26d5aff30d56E
00004e8c 00000006 t _ZN11embassy_nrf4chip11peripherals10PPI_GROUP35steal17h49a30d9e8a72c42dE
00004e92 00000006 t _ZN11embassy_nrf4chip11peripherals10PPI_GROUP45steal17h3fdb946dc61f728cE
00004e98 00000006 t _ZN11embassy_nrf4chip11peripherals10PPI_GROUP55steal17h9ac5aae8b843a0a7E
00004fca 00000006 t _ZN11embassy_nrf4chip11peripherals3I2S5steal17h115b8015b8c4f66aE
00004fc4 00000006 t _ZN11embassy_nrf4chip11peripherals3PDM5steal17h75ecf7bf4f9c774bE
00004d24 00000006 t _ZN11embassy_nrf4chip11peripherals3RNG5steal17h6fb9467942c7ce0dE
00004d18 00000006 t _ZN11embassy_nrf4chip11peripherals3WDT5steal17h71773c30a8ed10d6E
00004fd6 00000006 t _ZN11embassy_nrf4chip11peripherals4EGU05steal17hb3c1b80b8b72237fE
00004fdc 00000006 t _ZN11embassy_nrf4chip11peripherals4EGU15steal17hf1f8791d73db36a9E
00004fe2 00000006 t _ZN11embassy_nrf4chip11peripherals4EGU25steal17ha752e725579bac0bE
00004fe8 00000006 t _ZN11embassy_nrf4chip11peripherals4EGU35steal17h6eb1dfe27d5d1b3aE
00004fee 00000006 t _ZN11embassy_nrf4chip11peripherals4EGU45steal17h55f74b146a85faafE
00004ff4 00000006 t _ZN11embassy_nrf4chip11peripherals4EGU55steal17h9d1bc55c3e2666e1E
00004ffa 00000006 t _ZN11embassy_nrf4chip11peripherals4NFCT5steal17h8664b387f8047919E
00004d1e 00000006 t _ZN11embassy_nrf4chip11peripherals4NVMC5steal17h36905a153901b205E
00004d54 00000006 t _ZN11embassy_nrf4chip11peripherals4PWM05steal17h1c250283e4e62fe4E
00004d5a 00000006 t _ZN11embassy_nrf4chip11peripherals4PWM15steal17h96a2f670b62fcb05E
00004d60 00000006 t _ZN11embassy_nrf4chip11peripherals4PWM25steal17h265482d7a652d10fE
00004d66 00000006 t _ZN11embassy_nrf4chip11peripherals4PWM35steal17hc8cc901cde87a113E
00004fbe 00000006 t _ZN11embassy_nrf4chip11peripherals4QDEC5steal17h9342bef69e599f30E
00004d06 00000006 t _ZN11embassy_nrf4chip11peripherals4RTC05steal17h3dcb732d3e61e857E
00004d0c 00000006 t _ZN11embassy_nrf4chip11peripherals4RTC15steal17hab8e989493402ed8E
00004d12 00000006 t _ZN11embassy_nrf4chip11peripherals4RTC25steal17h4ea34a9a3c75cda8E
00004d42 00000006 t _ZN11embassy_nrf4chip11peripherals4SPI25steal17h099cf5cfeba607f5E
00004d48 00000006 t _ZN11embassy_nrf4chip11peripherals4SPI35steal17h48ef900873297160E
00004fb8 00000006 t _ZN11embassy_nrf4chip11peripherals4TEMP5steal17h0abe8b3a7f032464E
00004d00 00000006 t _ZN11embassy_nrf4chip11peripherals4USBD5steal17h831b2b75cab83c9eE
00004e9e 00000006 t _ZN11embassy_nrf4chip11peripherals5P0_005steal17he98c4ab6be4e982dE
00004ea4 00000006 t _ZN11embassy_nrf4chip11peripherals5P0_015steal17h78e46cb73f7cd361E
00004eaa 00000006 t _ZN11embassy_nrf4chip11peripherals5P0_025steal17h15034e4a5ba80129E
00004eb0 00000006 t _ZN11embassy_nrf4chip11peripherals5P0_035steal17h913437aceba08513E
00004eb6 00000006 t _ZN11embassy_nrf4chip11peripherals5P0_045steal17he48d358c1529598cE
00004ebc 00000006 t _ZN11embassy_nrf4chip11peripherals5P0_055steal17h4d59b3cb1bbef529E
00004ec2 00000006 t _ZN11embassy_nrf4chip11peripherals5P0_065steal17h2523470a41c2310cE
00004ec8 00000006 t _ZN11embassy_nrf4chip11peripherals5P0_075steal17h05f8444ed15fee87E
00004ece 00000006 t _ZN11embassy_nrf4chip11peripherals5P0_085steal17h328907314403a854E
00004ed4 00000006 t _ZN11embassy_nrf4chip11peripherals5P0_095steal17h0dcbff918fc14c48E
00004eda 00000006 t _ZN11embassy_nrf4chip11peripherals5P0_105steal17h2738b3b8063cb581E
00004ee0 00000006 t _ZN11embassy_nrf4chip11peripherals5P0_115steal17h2a6b024c454b65b6E
00004ee6 00000006 t _ZN11embassy_nrf4chip11peripherals5P0_125steal17hd0841cb22217bd25E
00004eec 00000006 t _ZN11embassy_nrf4chip11peripherals5P0_135steal17h025b61ce46064278E
00004ef2 00000006 t _ZN11embassy_nrf4chip11peripherals5P0_145steal17h76e738ec3083dc0aE
00004ef8 00000006 t _ZN11embassy_nrf4chip11peripherals5P0_155steal17h3cbabb161c6270f3E
00004efe 00000006 t _ZN11embassy_nrf4chip11peripherals5P0_165steal17he7a8a8a37b7ddb6eE
00004f04 00000006 t _ZN11embassy_nrf4chip11peripherals5P0_175steal17hbefd5d42becb444cE
00004f0a 00000006 t _ZN11embassy_nrf4chip11peripherals5P0_195steal17h2db59416574f9f41E
00004f10 00000006 t _ZN11embassy_nrf4chip11peripherals5P0_205steal17h98da990734f1715bE
00004f16 00000006 t _ZN11embassy_nrf4chip11peripherals5P0_215steal17h4ec239d3dc08ef06E
00004f1c 00000006 t _ZN11embassy_nrf4chip11peripherals5P0_225steal17h5a1e91c80085bd78E
00004f22 00000006 t _ZN11embassy_nrf4chip11peripherals5P0_235steal17hd7f38ddf80ab8f12E
00004f28 00000006 t _ZN11embassy_nrf4chip11peripherals5P0_245steal17hc9a009f4ae9b0abbE
00004f2e 00000006 t _ZN11embassy_nrf4chip11peripherals5P0_255steal17h6ea34576ee2b3230E
00004f34 00000006 t _ZN11embassy_nrf4chip11peripherals5P0_265steal17h0284dcc87c0c0a84E
00004f3a 00000006 t _ZN11embassy_nrf4chip11peripherals5P0_275steal17hf0025646c6b5d547E
00004f40 00000006 t _ZN11embassy_nrf4chip11peripherals5P0_285steal17h5db04a0cdb44828bE
00004f46 00000006 t _ZN11embassy_nrf4chip11peripherals5P0_295steal17hd44ca9f102bf8816E
00004f4c 00000006 t _ZN11embassy_nrf4chip11peripherals5P0_305steal17h93c208157009f890E
00004f52 00000006 t _ZN11embassy_nrf4chip11peripherals5P0_315steal17h9d26b4c40f13e471E
00004f58 00000006 t _ZN11embassy_nrf4chip11peripherals5P1_005steal17hb0afe7617a3aa8c3E
00004f5e 00000006 t _ZN11embassy_nrf4chip11peripherals5P1_015steal17hbdfd59635b94314aE
00004f64 00000006 t _ZN11embassy_nrf4chip11peripherals5P1_025steal17h82ea23603f5f4c8dE
00004f6a 00000006 t _ZN11embassy_nrf4chip11peripherals5P1_035steal17hc48c34d0009f1d1bE
00004f70 00000006 t _ZN11embassy_nrf4chip11peripherals5P1_045steal17hec672379b3142adeE
00004f76 00000006 t _ZN11embassy_nrf4chip11peripherals5P1_055steal17h0255bac34e0f74e9E
00004f7c 00000006 t _ZN11embassy_nrf4chip11peripherals5P1_065steal17h865454b83a37f467E
00004f82 00000006 t _ZN11embassy_nrf4chip11peripherals5P1_075steal17ha31300daa3e7d986E
00004f88 00000006 t _ZN11embassy_nrf4chip11peripherals5P1_085steal17hb577a99dd3ea0bb8E
00004f8e 00000006 t _ZN11embassy_nrf4chip11peripherals5P1_095steal17hb0c77be4e1980dadE
00004f94 00000006 t _ZN11embassy_nrf4chip11peripherals5P1_105steal17h64676bab30cd98ebE
00004f9a 00000006 t _ZN11embassy_nrf4chip11peripherals5P1_115steal17h5147319d103d60efE
00004fa0 00000006 t _ZN11embassy_nrf4chip11peripherals5P1_125steal17hd7a51f62ab65cc59E
00004fa6 00000006 t _ZN11embassy_nrf4chip11peripherals5P1_135steal17h81a4f8094a18250cE
00004fac 00000006 t _ZN11embassy_nrf4chip11peripherals5P1_145steal17h94fcf9367526ec78E
00004fb2 00000006 t _ZN11embassy_nrf4chip11peripherals5P1_155steal17h3ef9171b42d218c5E
00004fd0 00000006 t _ZN11embassy_nrf4chip11peripherals5RADIO5steal17h963fad0e510441abE
00004d4e 00000006 t _ZN11embassy_nrf4chip11peripherals5SAADC5steal17hc29c6bf22e816fa6E
00004d6c 00000006 t _ZN11embassy_nrf4chip11peripherals6TIMER05steal17h3eed9115f88093e5E
00004d72 00000006 t _ZN11embassy_nrf4chip11peripherals6TIMER15steal17h9b3253f53de00a3cE
00004d78 00000006 t _ZN11embassy_nrf4chip11peripherals6TIMER25steal17h08f872dea7923ebcE
00004d7e 00000006 t _ZN11embassy_nrf4chip11peripherals6TIMER35steal17hd458bd37848577fcE
00004d84 00000006 t _ZN11embassy_nrf4chip11peripherals6TIMER45steal17h6e15498fbbd8d6a5E
00004d2a 00000006 t _ZN11embassy_nrf4chip11peripherals6UARTE05steal17he8905746d088885dE
00004d30 00000006 t _ZN11embassy_nrf4chip11peripherals6UARTE15steal17hdcbf21a9f6a028a2E
00004dba 00000006 t _ZN11embassy_nrf4chip11peripherals7PPI_CH05steal17h9e2ca79ae2760068E
00004dc0 00000006 t _ZN11embassy_nrf4chip11peripherals7PPI_CH15steal17h18510a8359df704fE
00004dc6 00000006 t _ZN11embassy_nrf4chip11peripherals7PPI_CH25steal17h70644a591145d545E
00004dcc 00000006 t _ZN11embassy_nrf4chip11peripherals7PPI_CH35steal17hcb85125b0d1dfc53E
00004dd2 00000006 t _ZN11embassy_nrf4chip11peripherals7PPI_CH45steal17h7d9510b8346c280dE
00004dd8 00000006 t _ZN11embassy_nrf4chip11peripherals7PPI_CH55steal17h5f3c7e39316694a4E
00004dde 00000006 t _ZN11embassy_nrf4chip11peripherals7PPI_CH65steal17hfaee938917477b28E
00004de4 00000006 t _ZN11embassy_nrf4chip11peripherals7PPI_CH75steal17hb8e6a1fc056a1477E
00004dea 00000006 t _ZN11embassy_nrf4chip11peripherals7PPI_CH85steal17h2c75b35220d11617E
00004df0 00000006 t _ZN11embassy_nrf4chip11peripherals7PPI_CH95steal17h1d3175ce4d787a14E
00004d36 00000006 t _ZN11embassy_nrf4chip11peripherals7TWISPI05steal17h1eafde0f980a8b35E
00004d3c 00000006 t _ZN11embassy_nrf4chip11peripherals7TWISPI15steal17h7465adf8287be503E
00004df6 00000006 t _ZN11embassy_nrf4chip11peripherals8PPI_CH105steal17h637c4add97286734E
00004dfc 00000006 t _ZN11embassy_nrf4chip11peripherals8PPI_CH115steal17h9305cd1b3eabc760E
00004e02 00000006 t _ZN11embassy_nrf4chip11peripherals8PPI_CH125steal17h1a321f60d0af35f0E
00004e08 00000006 t _ZN11embassy_nrf4chip11peripherals8PPI_CH135steal17hf3dccc2ecb612f26E
00004e0e 00000006 t _ZN11embassy_nrf4chip11peripherals8PPI_CH145steal17hf0f6ec3ea0d3a84cE
00004e14 00000006 t _ZN11embassy_nrf4chip11peripherals8PPI_CH155steal17h34ea9af624039a3fE
00004e1a 00000006 t _ZN11embassy_nrf4chip11peripherals8PPI_CH165steal17hb9955dde91bc577bE
00004e20 00000006 t _ZN11embassy_nrf4chip11peripherals8PPI_CH175steal17h8300fd6c8a027842E
00004e26 00000006 t _ZN11embassy_nrf4chip11peripherals8PPI_CH185steal17hfb9da8be8cfe0a0cE
00004e2c 00000006 t _ZN11embassy_nrf4chip11peripherals8PPI_CH195steal17h4c1ecbadbdd01541E
00004e32 00000006 t _ZN11embassy_nrf4chip11peripherals8PPI_CH205steal17h5d6d0efc05a524dfE
00004e38 00000006 t _ZN11embassy_nrf4chip11peripherals8PPI_CH215steal17h9bb207139b4ce9eeE
00004e3e 00000006 t _ZN11embassy_nrf4chip11peripherals8PPI_CH225steal17h64fecebfad31af9cE
00004e44 00000006 t _ZN11embassy_nrf4chip11peripherals8PPI_CH235steal17h20e5e50f8cf9aca1E
00004e4a 00000006 t _ZN11embassy_nrf4chip11peripherals8PPI_CH245steal17h2616a5f83ef38f71E
00004e50 00000006 t _ZN11embassy_nrf4chip11peripherals8PPI_CH255steal17h0e4252fe4ab4949aE
00004e56 00000006 t _ZN11embassy_nrf4chip11peripherals8PPI_CH265steal17h244bac9a17de45d0E
00004e5c 00000006 t _ZN11embassy_nrf4chip11peripherals8PPI_CH275steal17h1bae714df300d67fE
00004e62 00000006 t _ZN11embassy_nrf4chip11peripherals8PPI_CH285steal17hd769a5f4c199d6b3E
00004e68 00000006 t _ZN11embassy_nrf4chip11peripherals8PPI_CH295steal17h5898461322066a3cE
00004e6e 00000006 t _ZN11embassy_nrf4chip11peripherals8PPI_CH305steal17hcf7bc8d0fb8122fbE
00004e74 00000006 t _ZN11embassy_nrf4chip11peripherals8PPI_CH315steal17h20c147ac67fae688E
00009df0 00000006 T _ZN5defmt6export14make_formatter17hec2c8cf7937169c8E
20000018 00000006 D _ZN9defmt_rtt4NAME17ha0cecba21a35b499E
0000651a 00000006 T DefaultPreInit
0000beac 00000007 r .Lanon.a473f3ed17537ab1765ff248236b5c92.0
0000873e 00000008 T _ZN4core3ptr8non_null16NonNull$LT$T$GT$8dangling17h57c68de6288a128dE
0000ab9e 00000008 T _ZN4core5slice5index26slice_start_index_len_fail17hf0e445734c2ea2eeE
00009f54 00000008 t _ZN5defmt13default_panic19panic_cold_explicit17h1cddfb4b4bc7e40bE
00007678 00000008 t _ZN8cortex_m3asm3udf17h4d4ff31e1f530bd0E
00000420 00000008 t _ZN92_$LT$microbit_async_display_example..types..Brightness$u20$as$u20$core..default..Default$GT$7default17hb3a063483d781c24E
0000bee8 00000008 r .Lanon.03554fe56e826a5e89dab7811ba1a79f.1
0000bf30 00000008 r .Lanon.03554fe56e826a5e89dab7811ba1a79f.3
0000d5c8 00000008 r .Lanon.069a74c44611907ed3313b3e40b33cf9.12
0000d5fc 00000008 r .Lanon.069a74c44611907ed3313b3e40b33cf9.14
0000d4c4 00000008 r .Lanon.069a74c44611907ed3313b3e40b33cf9.5
0000d4f4 00000008 r .Lanon.069a74c44611907ed3313b3e40b33cf9.7
0000e424 00000008 r .Lanon.12cc1d9fe6f1b1b4c9d72ed1b08691ce.4
0000ea34 00000008 r .Lanon.2642cffa3caea40eecf91712b6f521b7.124
0000ea60 00000008 r .Lanon.2642cffa3caea40eecf91712b6f521b7.126
0000ea8c 00000008 r .Lanon.2642cffa3caea40eecf91712b6f521b7.128
0000eab8 00000008 r .Lanon.2642cffa3caea40eecf91712b6f521b7.136
0000eae4 00000008 r .Lanon.2642cffa3caea40eecf91712b6f521b7.138
0000eb0c 00000008 r .Lanon.2642cffa3caea40eecf91712b6f521b7.162
0000eb9c 00000008 r .Lanon.2642cffa3caea40eecf91712b6f521b7.229
0000ed14 00000008 r .Lanon.2642cffa3caea40eecf91712b6f521b7.440
0000ed58 00000008 r .Lanon.2642cffa3caea40eecf91712b6f521b7.442
0000ed84 00000008 r .Lanon.2642cffa3caea40eecf91712b6f521b7.446
0000e7c0 00000008 r .Lanon.36182ab82863f906170aba3dd0ad5a05.3
0000d658 00000008 r .Lanon.53b48ad2f557dc81341c8169805b9500.1
0000d790 00000008 r .Lanon.53b48ad2f557dc81341c8169805b9500.11
0000d688 00000008 r .Lanon.53b48ad2f557dc81341c8169805b9500.3
0000d75c 00000008 r .Lanon.53b48ad2f557dc81341c8169805b9500.9
0000cf54 00000008 r .Lanon.547fc51a2902d144e8eba21b120b98d9.14
0000e184 00000008 r .Lanon.991788cae5f6c04ec8ef682fcc9a57c2.12
0000e1b8 00000008 r .Lanon.991788cae5f6c04ec8ef682fcc9a57c2.14
0000e214 00000008 r .Lanon.991788cae5f6c04ec8ef682fcc9a57c2.18
0000e260 00000008 r .Lanon.991788cae5f6c04ec8ef682fcc9a57c2.21
0000e2a8 00000008 r .Lanon.991788cae5f6c04ec8ef682fcc9a57c2.23
0000e080 00000008 r .Lanon.991788cae5f6c04ec8ef682fcc9a57c2.5
0000e0b0 00000008 r .Lanon.991788cae5f6c04ec8ef682fcc9a57c2.7
0000c988 00000008 r .Lanon.c172fdc47fa9660231392d1223c8698e.1
0000dad4 00000008 r .Lanon.de043f8522eeaf755c64980e469d8f89.10
0000dba8 00000008 r .Lanon.de043f8522eeaf755c64980e469d8f89.15
0000dbdc 00000008 r .Lanon.de043f8522eeaf755c64980e469d8f89.17
0000d8c8 00000008 r .Lanon.de043f8522eeaf755c64980e469d8f89.2
0000de04 00000008 r .Lanon.de043f8522eeaf755c64980e469d8f89.37
0000de9c 00000008 r .Lanon.de043f8522eeaf755c64980e469d8f89.41
0000daa4 00000008 r .Lanon.de043f8522eeaf755c64980e469d8f89.8
0000c678 00000008 r .Lanon.e5c7eabd1c1219b5009d9a0e8c4508ba.1
00006512 00000008 T DefaultHandler_
0000ba74 00000008 T HardFault_
00001f80 00000008 T main
00009f16 0000000a T __defmt_default_timestamp
0000a290 0000000a T _critical_section_1_0_acquire
00008684 0000000a T _defmt_acquire
0000868e 0000000a T _defmt_release
00005fa6 0000000a t _ZN11embassy_nrf4chip11Peripherals4take17hc6f61a243203b187E
0000477a 0000000a t _ZN11embassy_nrf6gpiote20__cortex_m_rt_GPIOTE17h0f964820b9d1e326E
000069a0 0000000a T _ZN12embassy_time7instant7Instant3now17hfcd4d5f32b6e690aE
000096f0 0000000a T _ZN16embassy_executor3raw7TaskRef8dangling17he46ac951e1b89cdcE
000070c4 0000000a T _ZN19embassy_time_driver3now17he20ffa15b03699c6E
00005400 0000000a t _ZN4core4hint21unreachable_unchecked17hf59fb41359edf49fE
00002538 0000000a t _ZN5defmt5impls10primitives57_$LT$impl$u20$defmt..traits..Format$u20$for$u20$$RF$T$GT$11_format_tag17hdf571e4e0b25c09bE
00004c2c 0000000a t _ZN8cortex_m3asm3dsb17h7c625381e317ba95E
00004c36 0000000a t _ZN8cortex_m3asm3nop17hdc29cfb006c9c898E
0000a23c 0000000a t _ZN8cortex_m9interrupt6enable17h60c93a269a7d7d69E
0000a232 0000000a t _ZN8cortex_m9interrupt7disable17h80927f083ce1baf2E
00007680 0000000a t _ZN8cortex_m9interrupt7disable17hdc09b2612b46ca78E
00004770 0000000a T GPIOTE
000061fa 0000000a T RTC1
0000b62e 0000000c t __aeabi_memcpy
00006216 0000000c T _ZN100_$LT$embassy_hal_internal..peripheral..PeripheralRef$LT$T$GT$$u20$as$u20$core..ops..deref..Deref$GT$5deref17ha7d8806d5c570d52E
0000419e 0000000c t _ZN11embassy_nrf17uicr_write_masked28_$u7b$$u7b$closure$u7d$$u7d$17hfe351852d5f3ea43E
0000972c 0000000c T _ZN16embassy_executor3raw11poll_exited17hfd5b40237e42c657E
00009606 0000000c T _ZN16embassy_executor3raw5state5State6as_u3217h2de4fd4b41425cedE
00009670 0000000c t _ZN16embassy_executor3raw5waker4drop17h5d1f402ef190d1c7E
00009974 0000000c T _ZN16embassy_executor7spawner7Spawner3new17h3de6049afb2a18d6E
00001f1c 0000000c t _ZN30microbit_async_display_example18__cortex_m_rt_main13__make_static17hcd078f9d8ccbce0dE
0000284a 0000000c t _ZN4core3mem6forget17h2c57308c447e7258E
00002558 0000000c t _ZN4core3ptr8non_null16NonNull$LT$T$GT$4cast17h9c4595d49df83306E
00000a56 0000000c t _ZN59_$LT$F$u20$as$u20$core..future..into_future..IntoFuture$GT$11into_future17h084bf453f79ba1fbE
00002138 0000000c t _ZN59_$LT$F$u20$as$u20$core..future..into_future..IntoFuture$GT$11into_future17h4688f24b45962794E
00002144 0000000c t _ZN59_$LT$F$u20$as$u20$core..future..into_future..IntoFuture$GT$11into_future17h56932797be1dea54E
00000a62 0000000c t _ZN59_$LT$F$u20$as$u20$core..future..into_future..IntoFuture$GT$11into_future17h896d1013a979303dE
00002150 0000000c t _ZN59_$LT$F$u20$as$u20$core..future..into_future..IntoFuture$GT$11into_future17h904069b77dba90d6E
00000a6e 0000000c t _ZN59_$LT$F$u20$as$u20$core..future..into_future..IntoFuture$GT$11into_future17h90e0f18db2d5d939E
00000a7a 0000000c t _ZN59_$LT$F$u20$as$u20$core..future..into_future..IntoFuture$GT$11into_future17hdcc650a88c2ece8cE
0000346c 0000000c T _ZN63_$LT$I$u20$as$u20$core..iter..traits..collect..IntoIterator$GT$9into_iter17h5dcfb84cb40c63f0E
00009992 0000000c T _ZN79_$LT$embassy_executor..spawner..SpawnError$u20$as$u20$defmt..traits..Format$GT$12_format_data17ha405255581f7b4d4E
00002564 0000000c t _ZN90_$LT$core..ptr..non_null..NonNull$LT$T$GT$$u20$as$u20$core..convert..From$LT$$RF$T$GT$$GT$4from17hb6b6b95f3e6c2b63E
0000eb50 0000000c r .Lanon.2642cffa3caea40eecf91712b6f521b7.223
0000bfe8 0000000d r .Lanon.5eac2f61d813b6766dcaf33dcbc6e470.0
00005586 0000000e t _ZN11embassy_nrf11time_driver3rtc17h6cae432e202c4cb3E
000038ea 0000000e T _ZN11embassy_nrf6gpiote4regs17hed8d2a49325f5b4fE
00006a52 0000000e t _ZN12embassy_time7instant7Instant11checked_add28_$u7b$$u7b$closure$u7d$$u7d$17h70a6db68c353256bE
00006912 0000000e t _ZN12embassy_time8duration8Duration11checked_div28_$u7b$$u7b$closure$u7d$$u7d$17h65edc6d4ac8b4a4bE
00002b16 0000000e t _ZN16critical_section5mutex14Mutex$LT$T$GT$6borrow17h77d965106c134d4bE
00002b24 0000000e t _ZN16critical_section5mutex14Mutex$LT$T$GT$6borrow17he86f423c40f64adeE
0000971e 0000000e T _ZN16embassy_executor3raw7TaskRef6as_ptr17h4e14071552633612E
000032f4 0000000e t _ZN20embassy_hal_internal10peripheral22PeripheralRef$LT$T$GT$3new17h2d543c4c247c72b7E
00006de8 0000000e T _ZN20embassy_hal_internal9interrupt101_$LT$impl$u20$core..convert..From$LT$embassy_hal_internal..interrupt..Priority$GT$$u20$for$u20$u8$GT$4from17h764c4e185f8e43deE
00000412 0000000e t _ZN30microbit_async_display_example5types10Brightness5level17hec1be1fa7303eef2E
0000283c 0000000e t _ZN4core3mem6forget17h1c783cea6f02fee8E
00005330 0000000e t _ZN4core3ops8function6FnOnce9call_once17hf8875233ff2141deE
0000335a 0000000e t _ZN4core4cell13Cell$LT$T$GT$3get17h3beb6b66500aa087E
00003368 0000000e t _ZN4core4cell13Cell$LT$T$GT$3get17h5a4f70328894023eE
00006e50 0000000e T _ZN4core4cell13Cell$LT$T$GT$3get17h99156f9b85005c36E
00009338 0000000e t _ZN4core4task4wake5Waker4data17hf1388a8c4e3687d3E
00009346 0000000e t _ZN4core4task4wake5Waker6vtable17he794e2b910751fe7E
00009354 0000000e t _ZN4core4task4wake5Waker8from_raw17h1a0c16eb477569e1E
000062e8 0000000e t _ZN4core4task4wake7Context5waker17h30a7fb56ee4286efE
000066d2 0000000e t _ZN4core4task4wake7Context5waker17h41b82b6d034ca65eE
00001fec 0000000e t _ZN4core5alloc6layout6Layout4size17h30fba2bb97d3f226E
00001ffa 0000000e t _ZN4core5alloc6layout6Layout5align17heea29df1c3211099E
0000331c 0000000e t _ZN57_$LT$$RF$mut$u20$T$u20$as$u20$core..ops..deref..Deref$GT$5deref17h407ef373732b9ff8E
0000345e 0000000e T _ZN57_$LT$$RF$mut$u20$T$u20$as$u20$core..ops..deref..Deref$GT$5deref17h7a759c789a315bdbE
000067b4 0000000e T _ZN57_$LT$$RF$mut$u20$T$u20$as$u20$core..ops..deref..Deref$GT$5deref17hfcf3727fe899df5bE
00002a20 0000000e t _ZN59_$LT$F$u20$as$u20$core..future..into_future..IntoFuture$GT$11into_future17he34ff32b5337e15fE
00009de2 0000000e T _ZN5defmt6export9make_istr17h5fd4c9793e25184eE
000067c2 0000000e T _ZN60_$LT$$RF$mut$u20$T$u20$as$u20$core..ops..deref..DerefMut$GT$9deref_mut17hbfaf8595f4bd66f4E
0000a1a4 0000000e T _ZN63_$LT$I$u20$as$u20$core..iter..traits..collect..IntoIterator$GT$9into_iter17h0afde0faa91357dbE
000008de 0000000e t _ZN63_$LT$I$u20$as$u20$core..iter..traits..collect..IntoIterator$GT$9into_iter17ha73d16b1813da6c8E
000008ec 0000000e t _ZN63_$LT$I$u20$as$u20$core..iter..traits..collect..IntoIterator$GT$9into_iter17hca4b17596e89abbbE
000008fa 0000000e t _ZN63_$LT$I$u20$as$u20$core..iter..traits..collect..IntoIterator$GT$9into_iter17hfe3c64bb99cfde94E
00005520 0000000e T _ZN74_$LT$core..cell..RefMut$LT$T$GT$$u20$as$u20$core..ops..deref..DerefMut$GT$9deref_mut17hf97b6e5f302903b9E
000038bc 0000000e t _ZN74_$LT$embassy_nrf..gpio..AnyPin$u20$as$u20$embassy_nrf..gpio..SealedPin$GT$8pin_port17h7eaa23fbf0d9f281E
00002dbc 0000000e t _ZN87_$LT$core..result..Result$LT$T$C$E$GT$$u20$as$u20$defmt..export..traits..IntoResult$GT$11into_result17h0a61fded342268acE
0000252a 0000000e t _ZN90_$LT$embassy_nrf..gpio..AnyPin$u20$as$u20$embassy_hal_internal..peripheral..Peripheral$GT$15clone_unchecked17hefbc872d95c0faafE
000094a0 0000000e T _ZN94_$LT$embassy_executor..arch..__pender..Irq$u20$as$u20$cortex_m..interrupt..InterruptNumber$GT$6number17hfd3f62d549fe34b3E
0000eaec 0000000e r .Lanon.2642cffa3caea40eecf91712b6f521b7.159
00009f20 00000010 T __defmt_default_panic
000058b6 00000010 t _ZN11embassy_nrf11time_driver9RtcDriver11next_period17h57e3a42461bc694fE
00004c40 00000010 T _ZN11embassy_nrf4gpio3Pin7degrade17h01c132438600ad08E
00004c50 00000010 T _ZN11embassy_nrf4gpio3Pin7degrade17h046f9cf7caa18818E
00004c60 00000010 T _ZN11embassy_nrf4gpio3Pin7degrade17h263a5ced7163a376E
00004c70 00000010 T _ZN11embassy_nrf4gpio3Pin7degrade17h28ebe9bae66a1dd3E
00004c80 00000010 T _ZN11embassy_nrf4gpio3Pin7degrade17h38f6c5df68e9b4b2E
00004c90 00000010 T _ZN11embassy_nrf4gpio3Pin7degrade17h3ad8195b8553f21dE
00004ca0 00000010 T _ZN11embassy_nrf4gpio3Pin7degrade17h42afd42e9c0dc241E
00004cb0 00000010 T _ZN11embassy_nrf4gpio3Pin7degrade17h47017b31f21f41a4E
00004cc0 00000010 T _ZN11embassy_nrf4gpio3Pin7degrade17h79bd1e0fe83ad1bcE
00004cd0 00000010 T _ZN11embassy_nrf4gpio3Pin7degrade17ha383c0f0d170054eE
00004ce0 00000010 T _ZN11embassy_nrf4gpio3Pin7degrade17hb30ccf8511e366e5E
00004cf0 00000010 T _ZN11embassy_nrf4gpio3Pin7degrade17hd389a42720d795eeE
0000349c 00000010 t _ZN11embassy_nrf4gpio6Output7set_low17h116907f774bab9e6E
0000348c 00000010 t _ZN11embassy_nrf4gpio6Output8set_high17hc7c753ddba9f9a3fE
00007256 00000010 T _ZN122_$LT$embassy_sync..blocking_mutex..raw..CriticalSectionRawMutex$u20$as$u20$embassy_sync..blocking_mutex..raw..RawMutex$GT$4lock28_$u7b$$u7b$closure$u7d$$u7d$17hc20a15227b6c5ddfE
0000343e 00000010 T _ZN12embassy_sync14blocking_mutex75Mutex$LT$embassy_sync..blocking_mutex..raw..CriticalSectionRawMutex$C$T$GT$6borrow17h1e5f41b1877ff8d1E
0000344e 00000010 T _ZN12embassy_sync14blocking_mutex75Mutex$LT$embassy_sync..blocking_mutex..raw..CriticalSectionRawMutex$C$T$GT$6borrow17h7d19149fad415fa7E
000073f8 00000010 T _ZN12embassy_sync9waitqueue12atomic_waker11AtomicWaker4wake17h8492fb69456d8b05E
00007362 00000010 T _ZN12embassy_sync9waitqueue12atomic_waker27GenericAtomicWaker$LT$M$GT$4wake17hf7f2d28be1b53c91E
000097fc 00000010 t _ZN16embassy_executor3raw12SyncExecutor4poll17h1648c9abe771619cE
00000636 00000010 t _ZN16embassy_executor3raw22AvailableTask$LT$F$GT$5claim28_$u7b$$u7b$closure$u7d$$u7d$17h192ea2556efaa5fbE
00002a2e 00000010 t _ZN16embassy_executor3raw4util19UninitCell$LT$T$GT$10as_mut_ptr17h1e501050c13a6452E
00002a7a 00000010 t _ZN16embassy_executor3raw4util19UninitCell$LT$T$GT$6as_mut17hdd982ef03b686451E
00009624 00000010 t _ZN16embassy_executor3raw4util23SyncUnsafeCell$LT$T$GT$3get17h479d6e9d4e32169dE
00009634 00000010 t _ZN16embassy_executor3raw4util23SyncUnsafeCell$LT$T$GT$3get17he1def9ecccc0596aE
0000e2d0 00000010 r _ZN16embassy_executor3raw5waker6VTABLE17hb788ebea98a99fc8E
00009738 00000010 t _ZN16embassy_executor3raw6Pender4pend17h1a40b965e4cfde3fE
000096e0 00000010 t _ZN16embassy_executor3raw7TaskRef8from_ptr17he7e62cf205c9325bE
0000986e 00000010 T _ZN16embassy_executor3raw8Executor4poll17h19375dbfb09ee3a6E
0000987e 00000010 T _ZN16embassy_executor3raw8Executor7spawner17hb7e0d8e9e2724e86E
0000067e 00000010 t _ZN16embassy_executor7_export11TaskPoolRef3get17h2a7433025a7916ccE
00002e40 00000010 t _ZN16embassy_executor7spawner19SpawnToken$LT$S$GT$10new_failed17h14713d30cecec555E
00002e50 00000010 t _ZN16embassy_executor7spawner19SpawnToken$LT$S$GT$3new17h7e8bfa4500b6e3ffE
00001f0c 00000010 t _ZN30microbit_async_display_example14__embassy_main28_$u7b$$u7b$closure$u7d$$u7d$17h63f3b2467cca3291E
0000b406 00000010 t _ZN42_$LT$$RF$T$u20$as$u20$core..fmt..Debug$GT$3fmt17hd4926f264aaed311E
00009a14 00000010 T _ZN4core3fmt5Write9write_fmt17hd242372d8b039474E
0000ab8e 00000010 T _ZN4core3fmt9Formatter9write_str17hf2abd6d7d3a79bb2E
00009a6c 00000010 t _ZN4core3num21_$LT$impl$u20$u32$GT$11to_le_bytes17h92e3e95e8454dab3E
00007408 00000010 T _ZN4core3ptr44drop_in_place$LT$core..task..wake..Waker$GT$17h8f3d27706aadafabE
000027d0 00000010 t _ZN4core3ptr44drop_in_place$LT$embassy_nrf..gpio..Flex$GT$17h908fde96a0227d1cE
0000533e 00000010 T _ZN4core3ptr45drop_in_place$LT$core..cell..BorrowRefMut$GT$17h481c10f62b0989c6E
000027e0 00000010 t _ZN4core3ptr45drop_in_place$LT$embassy_nrf..gpio..Input$GT$17hcd4a4d5430efcce3E
000027f0 00000010 t _ZN4core3ptr46drop_in_place$LT$embassy_nrf..gpio..Output$GT$17ha988fba2f40c2f04E
00002800 00000010 t _ZN4core3ptr57drop_in_place$LT$embassy_nrf..gpiote..PortInputFuture$GT$17h81713ec0a2a8a8f3E
00003376 00000010 t _ZN4core4cell13Cell$LT$T$GT$3set17h7fa06842796ee4c0E
00006e84 00000010 T _ZN4core4cell13Cell$LT$T$GT$3set17hb9632cb4ac8c3c0aE
00003386 00000010 t _ZN4core4cell13Cell$LT$T$GT$3set17hbd924c25cd1bf402E
0000a194 00000010 T _ZN4core4iter5range101_$LT$impl$u20$core..iter..traits..iterator..Iterator$u20$for$u20$core..ops..range..Range$LT$A$GT$$GT$4next17hd1eed7027fe23b7aE
00008d2e 00000010 T _ZN4core4sync6atomic18AtomicPtr$LT$T$GT$3new17h14c1a04561cdfa5fE
0000ab8e 00000010 T _ZN57_$LT$core..fmt..Formatter$u20$as$u20$core..fmt..Write$GT$9write_str17hfcf9d41258bfd673E
000080de 00000010 T _ZN5defmt8encoding7Encoder11start_frame17ha99e41e021885319E
00008102 00000010 T _ZN5defmt8encoding7Encoder9end_frame17h1beb2f0016646dfeE
00003600 00000010 T _ZN65_$LT$embassy_nrf..gpio..Flex$u20$as$u20$core..ops..drop..Drop$GT$4drop17h24d312eb7c1f2aacE
000038da 00000010 T _ZN78_$LT$embassy_nrf..gpio..Output$u20$as$u20$embedded_hal..digital..OutputPin$GT$7set_low17h0a9fb674b5f9e687E
000038ca 00000010 T _ZN78_$LT$embassy_nrf..gpio..Output$u20$as$u20$embedded_hal..digital..OutputPin$GT$8set_high17hb140d5bce220f12aE
0000c350 00000010 r .Lanon.032f2ce6783d29844e76c855c775b1a8.1
0000c360 00000010 r .Lanon.032f2ce6783d29844e76c855c775b1a8.2
0000c370 00000010 r .Lanon.032f2ce6783d29844e76c855c775b1a8.3
0000c380 00000010 r .Lanon.032f2ce6783d29844e76c855c775b1a8.4
0000c390 00000010 r .Lanon.032f2ce6783d29844e76c855c775b1a8.5
0000bfc8 00000010 r .Lanon.03554fe56e826a5e89dab7811ba1a79f.6
0000bfd8 00000010 r .Lanon.03554fe56e826a5e89dab7811ba1a79f.7
0000d584 00000010 r .Lanon.069a74c44611907ed3313b3e40b33cf9.10
0000d604 00000010 r .Lanon.069a74c44611907ed3313b3e40b33cf9.15
0000d614 00000010 r .Lanon.069a74c44611907ed3313b3e40b33cf9.16
0000d574 00000010 r .Lanon.069a74c44611907ed3313b3e40b33cf9.9
0000e6cc 00000010 r .Lanon.12cc1d9fe6f1b1b4c9d72ed1b08691ce.18
0000e3e8 00000010 r .Lanon.12cc1d9fe6f1b1b4c9d72ed1b08691ce.2
0000e4a0 00000010 r .Lanon.12cc1d9fe6f1b1b4c9d72ed1b08691ce.6
0000e644 00000010 r .Lanon.12cc1d9fe6f1b1b4c9d72ed1b08691ce.9
0000c634 00000010 r .Lanon.1828695981196f7ef55217ca9633f1f2.1
0000eb7c 00000010 r .Lanon.2642cffa3caea40eecf91712b6f521b7.226
0000ebcc 00000010 r .Lanon.2642cffa3caea40eecf91712b6f521b7.256
0000edc0 00000010 r .Lanon.2642cffa3caea40eecf91712b6f521b7.475
0000c1b0 00000010 r .Lanon.2b07d116ccc34a249efb8a88324ec3c3.1
0000c1ec 00000010 r .Lanon.2b07d116ccc34a249efb8a88324ec3c3.4
0000c228 00000010 r .Lanon.2b07d116ccc34a249efb8a88324ec3c3.7
0000c2a0 00000010 r .Lanon.2e8ad8643fdb95b3c238a6fa60bcd7a6.1
0000c2b0 00000010 r .Lanon.2e8ad8643fdb95b3c238a6fa60bcd7a6.2
0000e924 00000010 r .Lanon.36182ab82863f906170aba3dd0ad5a05.7
0000d1cc 00000010 r .Lanon.419a29a396f23f026111ee08d83afb37.1
0000d2d0 00000010 r .Lanon.419a29a396f23f026111ee08d83afb37.26
0000d2e0 00000010 r .Lanon.419a29a396f23f026111ee08d83afb37.27
0000d2f0 00000010 r .Lanon.419a29a396f23f026111ee08d83afb37.28
0000d300 00000010 r .Lanon.419a29a396f23f026111ee08d83afb37.29
0000d310 00000010 r .Lanon.419a29a396f23f026111ee08d83afb37.30
0000d250 00000010 r .Lanon.419a29a396f23f026111ee08d83afb37.6
0000d798 00000010 r .Lanon.53b48ad2f557dc81341c8169805b9500.12
0000d7a8 00000010 r .Lanon.53b48ad2f557dc81341c8169805b9500.13
0000d7b8 00000010 r .Lanon.53b48ad2f557dc81341c8169805b9500.14
0000d708 00000010 r .Lanon.53b48ad2f557dc81341c8169805b9500.6
0000d718 00000010 r .Lanon.53b48ad2f557dc81341c8169805b9500.7
0000cf5c 00000010 r .Lanon.547fc51a2902d144e8eba21b120b98d9.15
0000cffc 00000010 r .Lanon.547fc51a2902d144e8eba21b120b98d9.26
0000d00c 00000010 r .Lanon.547fc51a2902d144e8eba21b120b98d9.27
0000d01c 00000010 r .Lanon.547fc51a2902d144e8eba21b120b98d9.28
0000d098 00000010 r .Lanon.547fc51a2902d144e8eba21b120b98d9.53
0000d0a8 00000010 r .Lanon.547fc51a2902d144e8eba21b120b98d9.54
0000d0b8 00000010 r .Lanon.547fc51a2902d144e8eba21b120b98d9.55
0000d0c8 00000010 r .Lanon.547fc51a2902d144e8eba21b120b98d9.56
0000d0d8 00000010 r .Lanon.547fc51a2902d144e8eba21b120b98d9.57
0000d0e8 00000010 r .Lanon.547fc51a2902d144e8eba21b120b98d9.58
0000d0f8 00000010 r .Lanon.547fc51a2902d144e8eba21b120b98d9.59
0000d108 00000010 r .Lanon.547fc51a2902d144e8eba21b120b98d9.60
0000d118 00000010 r .Lanon.547fc51a2902d144e8eba21b120b98d9.61
0000d128 00000010 r .Lanon.547fc51a2902d144e8eba21b120b98d9.62
0000d138 00000010 r .Lanon.547fc51a2902d144e8eba21b120b98d9.63
0000ba8c 00000010 r .Lanon.5a577a817502453beb239981ef330a5e.1
0000bb30 00000010 r .Lanon.5a577a817502453beb239981ef330a5e.10
0000bb40 00000010 r .Lanon.5a577a817502453beb239981ef330a5e.11
0000bb50 00000010 r .Lanon.5a577a817502453beb239981ef330a5e.12
0000ba9c 00000010 r .Lanon.5a577a817502453beb239981ef330a5e.2
0000baac 00000010 r .Lanon.5a577a817502453beb239981ef330a5e.3
0000bae0 00000010 r .Lanon.5a577a817502453beb239981ef330a5e.5
0000baf0 00000010 r .Lanon.5a577a817502453beb239981ef330a5e.6
0000bb00 00000010 r .Lanon.5a577a817502453beb239981ef330a5e.7
0000bb10 00000010 r .Lanon.5a577a817502453beb239981ef330a5e.8
0000bb20 00000010 r .Lanon.5a577a817502453beb239981ef330a5e.9
0000c190 00000010 r .Lanon.63214ac159895ff6570f9e04790371b6.1
0000bccc 00000010 r .Lanon.93341e7119d5309384c34c6a10f15ef1.1
0000bcdc 00000010 r .Lanon.93341e7119d5309384c34c6a10f15ef1.2
0000bcec 00000010 r .Lanon.93341e7119d5309384c34c6a10f15ef1.3
0000bcfc 00000010 r .Lanon.93341e7119d5309384c34c6a10f15ef1.4
0000e140 00000010 r .Lanon.991788cae5f6c04ec8ef682fcc9a57c2.10
0000e1c0 00000010 r .Lanon.991788cae5f6c04ec8ef682fcc9a57c2.15
0000e1d0 00000010 r .Lanon.991788cae5f6c04ec8ef682fcc9a57c2.16
0000e21c 00000010 r .Lanon.991788cae5f6c04ec8ef682fcc9a57c2.19
0000e2b0 00000010 r .Lanon.991788cae5f6c04ec8ef682fcc9a57c2.24
0000e2c0 00000010 r .Lanon.991788cae5f6c04ec8ef682fcc9a57c2.25
0000e350 00000010 r .Lanon.991788cae5f6c04ec8ef682fcc9a57c2.28
0000e360 00000010 r .Lanon.991788cae5f6c04ec8ef682fcc9a57c2.29
0000e130 00000010 r .Lanon.991788cae5f6c04ec8ef682fcc9a57c2.9
0000cc50 00000010 r .Lanon.c172fdc47fa9660231392d1223c8698e.32
0000cc60 00000010 r .Lanon.c172fdc47fa9660231392d1223c8698e.35
0000cc70 00000010 r .Lanon.c172fdc47fa9660231392d1223c8698e.36
0000cc80 00000010 r .Lanon.c172fdc47fa9660231392d1223c8698e.39
0000cc90 00000010 r .Lanon.c172fdc47fa9660231392d1223c8698e.41
0000cca0 00000010 r .Lanon.c172fdc47fa9660231392d1223c8698e.42
0000ccb0 00000010 r .Lanon.c172fdc47fa9660231392d1223c8698e.43
0000ccc0 00000010 r .Lanon.c172fdc47fa9660231392d1223c8698e.44
0000ccd0 00000010 r .Lanon.c172fdc47fa9660231392d1223c8698e.48
0000caec 00000010 r .Lanon.c172fdc47fa9660231392d1223c8698e.5
0000cce0 00000010 r .Lanon.c172fdc47fa9660231392d1223c8698e.50
0000ccf0 00000010 r .Lanon.c172fdc47fa9660231392d1223c8698e.51
0000cd00 00000010 r .Lanon.c172fdc47fa9660231392d1223c8698e.57
0000d3ac 00000010 r .Lanon.c344c014f1b7d73bf21906a12b1a17ea.10
0000d3bc 00000010 r .Lanon.c344c014f1b7d73bf21906a12b1a17ea.26
0000d3cc 00000010 r .Lanon.c344c014f1b7d73bf21906a12b1a17ea.27
0000d448 00000010 r .Lanon.c344c014f1b7d73bf21906a12b1a17ea.34
0000d480 00000010 r .Lanon.c344c014f1b7d73bf21906a12b1a17ea.38
0000d39c 00000010 r .Lanon.c344c014f1b7d73bf21906a12b1a17ea.8
0000c798 00000010 r .Lanon.c7ee460fbe5e5cafa85acbbcf56ab5fc.16
0000c7a8 00000010 r .Lanon.c7ee460fbe5e5cafa85acbbcf56ab5fc.17
0000c7b8 00000010 r .Lanon.c7ee460fbe5e5cafa85acbbcf56ab5fc.18
0000c7c8 00000010 r .Lanon.c7ee460fbe5e5cafa85acbbcf56ab5fc.27
0000c7d8 00000010 r .Lanon.c7ee460fbe5e5cafa85acbbcf56ab5fc.28
0000c7e8 00000010 r .Lanon.c7ee460fbe5e5cafa85acbbcf56ab5fc.29
0000c7f8 00000010 r .Lanon.c7ee460fbe5e5cafa85acbbcf56ab5fc.30
0000c808 00000010 r .Lanon.c7ee460fbe5e5cafa85acbbcf56ab5fc.32
0000c818 00000010 r .Lanon.c7ee460fbe5e5cafa85acbbcf56ab5fc.33
0000c828 00000010 r .Lanon.c7ee460fbe5e5cafa85acbbcf56ab5fc.34
0000c838 00000010 r .Lanon.c7ee460fbe5e5cafa85acbbcf56ab5fc.35
0000c864 00000010 r .Lanon.c7ee460fbe5e5cafa85acbbcf56ab5fc.41
0000c874 00000010 r .Lanon.c7ee460fbe5e5cafa85acbbcf56ab5fc.42
0000c884 00000010 r .Lanon.c7ee460fbe5e5cafa85acbbcf56ab5fc.43
0000c8fc 00000010 r .Lanon.c7ee460fbe5e5cafa85acbbcf56ab5fc.62
0000c90c 00000010 r .Lanon.c7ee460fbe5e5cafa85acbbcf56ab5fc.63
0000c91c 00000010 r .Lanon.c7ee460fbe5e5cafa85acbbcf56ab5fc.64
0000c92c 00000010 r .Lanon.c7ee460fbe5e5cafa85acbbcf56ab5fc.65
0000c93c 00000010 r .Lanon.c7ee460fbe5e5cafa85acbbcf56ab5fc.66
0000c94c 00000010 r .Lanon.c7ee460fbe5e5cafa85acbbcf56ab5fc.69
0000db54 00000010 r .Lanon.de043f8522eeaf755c64980e469d8f89.12
0000db64 00000010 r .Lanon.de043f8522eeaf755c64980e469d8f89.13
0000dbe4 00000010 r .Lanon.de043f8522eeaf755c64980e469d8f89.18
0000dbf4 00000010 r .Lanon.de043f8522eeaf755c64980e469d8f89.19
0000dcac 00000010 r .Lanon.de043f8522eeaf755c64980e469d8f89.22
0000dcbc 00000010 r .Lanon.de043f8522eeaf755c64980e469d8f89.23
0000dccc 00000010 r .Lanon.de043f8522eeaf755c64980e469d8f89.24
0000dcdc 00000010 r .Lanon.de043f8522eeaf755c64980e469d8f89.25
0000dcec 00000010 r .Lanon.de043f8522eeaf755c64980e469d8f89.26
0000dcfc 00000010 r .Lanon.de043f8522eeaf755c64980e469d8f89.27
0000dd74 00000010 r .Lanon.de043f8522eeaf755c64980e469d8f89.29
0000dd84 00000010 r .Lanon.de043f8522eeaf755c64980e469d8f89.30
0000dd94 00000010 r .Lanon.de043f8522eeaf755c64980e469d8f89.31
0000dda4 00000010 r .Lanon.de043f8522eeaf755c64980e469d8f89.32
0000ddb4 00000010 r .Lanon.de043f8522eeaf755c64980e469d8f89.33
0000ddc4 00000010 r .Lanon.de043f8522eeaf755c64980e469d8f89.34
0000ddd4 00000010 r .Lanon.de043f8522eeaf755c64980e469d8f89.35
0000de70 00000010 r .Lanon.de043f8522eeaf755c64980e469d8f89.39
0000dea4 00000010 r .Lanon.de043f8522eeaf755c64980e469d8f89.42
0000d948 00000010 r .Lanon.de043f8522eeaf755c64980e469d8f89.5
0000c3ac 00000010 r .Lanon.e0ee941c3840e989dd2b24832ea9b099.5
0000c3c4 00000010 r .Lanon.e0ee941c3840e989dd2b24832ea9b099.7
0000c3d4 00000010 r .Lanon.e0ee941c3840e989dd2b24832ea9b099.8
0000c6f8 00000010 r .Lanon.e5c7eabd1c1219b5009d9a0e8c4508ba.4
0000bd0c 00000010 r .Lanon.e5db0d0660bc5904c97d5917f5a678eb.0
0000bdb8 00000010 r .Lanon.e5db0d0660bc5904c97d5917f5a678eb.10
0000bdc8 00000010 r .Lanon.e5db0d0660bc5904c97d5917f5a678eb.11
0000bdd8 00000010 r .Lanon.e5db0d0660bc5904c97d5917f5a678eb.12
0000bde8 00000010 r .Lanon.e5db0d0660bc5904c97d5917f5a678eb.13
0000bdf8 00000010 r .Lanon.e5db0d0660bc5904c97d5917f5a678eb.14
0000be2c 00000010 r .Lanon.e5db0d0660bc5904c97d5917f5a678eb.16
0000be3c 00000010 r .Lanon.e5db0d0660bc5904c97d5917f5a678eb.17
0000be4c 00000010 r .Lanon.e5db0d0660bc5904c97d5917f5a678eb.18
0000be5c 00000010 r .Lanon.e5db0d0660bc5904c97d5917f5a678eb.19
0000be6c 00000010 r .Lanon.e5db0d0660bc5904c97d5917f5a678eb.20
0000be7c 00000010 r .Lanon.e5db0d0660bc5904c97d5917f5a678eb.21
0000be8c 00000010 r .Lanon.e5db0d0660bc5904c97d5917f5a678eb.22
0000be9c 00000010 r .Lanon.e5db0d0660bc5904c97d5917f5a678eb.23
0000bd58 00000010 r .Lanon.e5db0d0660bc5904c97d5917f5a678eb.4
0000bd68 00000010 r .Lanon.e5db0d0660bc5904c97d5917f5a678eb.5
0000bd78 00000010 r .Lanon.e5db0d0660bc5904c97d5917f5a678eb.6
0000bd88 00000010 r .Lanon.e5db0d0660bc5904c97d5917f5a678eb.7
0000bd98 00000010 r .Lanon.e5db0d0660bc5904c97d5917f5a678eb.8
0000bda8 00000010 r .Lanon.e5db0d0660bc5904c97d5917f5a678eb.9
0000c334 00000010 r .Lanon.f65c469a25d0f10ebb7107f18128fcff.1
0000a29a 00000012 T _critical_section_1_0_release
00008698 00000012 T _defmt_write
00005f6c 00000012 T _embassy_time_now
00006204 00000012 t _ZN11embassy_nrf11time_driver18__cortex_m_rt_RTC117h85a2d114508c7df3E
000058a4 00000012 t _ZN11embassy_nrf11time_driver9RtcDriver12on_interrupt28_$u7b$$u7b$closure$u7d$$u7d$17h58bc7a3cb2448562E
00007244 00000012 T _ZN122_$LT$embassy_sync..blocking_mutex..raw..CriticalSectionRawMutex$u20$as$u20$embassy_sync..blocking_mutex..raw..RawMutex$GT$4lock28_$u7b$$u7b$closure$u7d$$u7d$17h4ed677b477235b0fE
000073e6 00000012 T _ZN12embassy_sync9waitqueue12atomic_waker11AtomicWaker8register17hf17cf2d6985e8e98E
000072c6 00000012 T _ZN12embassy_sync9waitqueue12atomic_waker27GenericAtomicWaker$LT$M$GT$8register17h66352035f07247f3E
000069aa 00000012 T _ZN12embassy_time7instant7Instant8as_ticks17h9cb9870d7a484a0eE
00000536 00000012 t _ZN16embassy_executor3raw21TaskPool$LT$F$C$_$GT$15_spawn_async_fn17h1601693635614615E
00009612 00000012 T _ZN16embassy_executor3raw4util23SyncUnsafeCell$LT$T$GT$3set17h3df240f58b26ea0bE
00002a8a 00000012 t _ZN16embassy_executor3raw4util23SyncUnsafeCell$LT$T$GT$3set17h518a18d14392673eE
000095e2 00000012 t _ZN16embassy_executor3raw5state6locked17h3168074fc605358fE
000095f4 00000012 t _ZN16embassy_executor3raw5state6locked17hff93f10e0f260cb6E
0000970c 00000012 T _ZN16embassy_executor3raw7TaskRef16timer_queue_item17hf5744ba05b232187E
000096fa 00000012 T _ZN16embassy_executor3raw7TaskRef6header17hd12d56945c9aeeb8E
0000985c 00000012 T _ZN16embassy_executor3raw8Executor5spawn17h8099ca7172178bb6E
000095d0 00000012 t _ZN16embassy_executor3raw9run_queue8RunQueue11dequeue_all28_$u7b$$u7b$closure$u7d$$u7d$17h7f1034c45322a162E
00009542 00000012 t _ZN16embassy_executor3raw9run_queue8RunQueue7enqueue28_$u7b$$u7b$closure$u7d$$u7d$28_$u7b$$u7b$closure$u7d$$u7d$17h33ccea26c4822fc6E
000062d6 00000012 T _ZN20embassy_hal_internal9interrupt12InterruptExt6unpend17h23de27ba4d6271c3E
0000b308 00000012 T _ZN4core3fmt3num3imp52_$LT$impl$u20$core..fmt..Display$u20$for$u20$u32$GT$3fmt17hd60e1a95f99da54dE
0000b308 00000012 T _ZN4core3fmt3num3imp54_$LT$impl$u20$core..fmt..Display$u20$for$u20$usize$GT$3fmt17hd47d5ccf754329d4E
00009a7c 00000012 t _ZN4core3num21_$LT$impl$u20$u64$GT$11to_le_bytes17hf9dc4b5b09d7c1e6E
0000066c 00000012 t _ZN4core3ptr5write17h05e94e16f97cc45cE
000086ca 00000012 T _ZN4core3ptr7mut_ptr31_$LT$impl$u20$$BP$mut$u20$T$GT$7is_null17hc0db22b49f52938dE
00002b32 00000012 t _ZN4core3ptr7mut_ptr31_$LT$impl$u20$$BP$mut$u20$T$GT$7is_null17hc47244a84bb37139E
00006dd6 00000012 T _ZN4core3ptr7mut_ptr31_$LT$impl$u20$$BP$mut$u20$T$GT$7is_null17hfec3e1d4a4a9bd7eE
0000536c 00000012 T _ZN4core3ptr96drop_in_place$LT$core..cell..RefMut$LT$embassy_time_queue_utils..queue_integrated..Queue$GT$$GT$17hafb4628f37dd8751E
00006e5e 00000012 T _ZN4core4cell13Cell$LT$T$GT$3get17he2081a591ba2b4c2E
0000540a 00000012 t _ZN4core4hint21unreachable_unchecked18precondition_check17h3eb3a9e402d78d1aE
00008746 00000012 t _ZN4core4hint21unreachable_unchecked18precondition_check17hf6437e23eaa38e7aE
00006326 00000012 T _ZN4core5slice29_$LT$impl$u20$$u5b$T$u5d$$GT$4iter17h0faac5c71319660dE
0000065a 00000012 t _ZN4core5slice29_$LT$impl$u20$$u5b$T$u5d$$GT$4iter17ha661ed814e902af1E
00002b6c 00000012 t _ZN4core5slice29_$LT$impl$u20$$u5b$T$u5d$$GT$8iter_mut17h1d3ab3faf84c56bcE
00003106 00000012 t _ZN4core5slice29_$LT$impl$u20$$u5b$T$u5d$$GT$8iter_mut17h2b28b071caa8b06cE
00006dc4 00000012 T _ZN4core5slice29_$LT$impl$u20$$u5b$T$u5d$$GT$8iter_mut17h46b3d0894c23207cE
00003118 00000012 t _ZN50_$LT$T$u20$as$u20$core..convert..Into$LT$U$GT$$GT$4into17h00f2eeabab1f54d6E
000054fa 00000012 T _ZN50_$LT$T$u20$as$u20$core..convert..Into$LT$U$GT$$GT$4into17h6e16e7255b95e556E
00008642 00000012 T _ZN59_$LT$defmt_rtt..Logger$u20$as$u20$defmt..traits..Logger$GT$7acquire17hcc1772739a3d574fE
00008672 00000012 T _ZN59_$LT$defmt_rtt..Logger$u20$as$u20$defmt..traits..Logger$GT$7release17h9f169f360ba18710E
00002a0e 00000012 t _ZN59_$LT$F$u20$as$u20$core..future..into_future..IntoFuture$GT$11into_future17h71c96032ece9205aE
00001fa2 00000012 t _ZN5defmt5impls10primitives55_$LT$impl$u20$defmt..traits..Format$u20$for$u20$str$GT$11_format_tag17h283c06a84b929d89E
00001fb4 00000012 t _ZN5defmt5impls10primitives55_$LT$impl$u20$defmt..traits..Format$u20$for$u20$str$GT$12_format_data17h63ee45bd70361d5eE
00001c58 00000012 t _ZN5defmt6export11into_result17hdf4031145057e60aE
00006ebc 00000012 t _ZN71_$LT$embassy_executor..raw..TaskRef$u20$as$u20$core..cmp..PartialEq$GT$2eq17ha152c31e6fbef106E
00006b7c 00000012 t _ZN72_$LT$embassy_time..instant..Instant$u20$as$u20$core..cmp..PartialOrd$GT$11partial_cmp17h83c5f53f7f175874E
00009980 00000012 T _ZN79_$LT$embassy_executor..spawner..SpawnError$u20$as$u20$defmt..traits..Format$GT$11_format_tag17hb60d30816bd64b53E
0000764e 00000012 T _ZN88_$LT$defmt..impls..adapter..Display2Format$LT$T$GT$$u20$as$u20$defmt..traits..Format$GT$11_format_tag17h218fc70a0a51152dE
0000b6d0 00000014 W __aeabi_uldivmod
00002502 00000014 t _ZN11embassy_nrf4gpio4Flex7set_low17h1ee4eef4c91d7346E
000035ec 00000014 t _ZN11embassy_nrf4gpio4Flex7set_low17h9138ebdb8ee0479aE
000035d8 00000014 t _ZN11embassy_nrf4gpio4Flex8set_high17h4538f540fa1203b7E
00002516 00000014 t _ZN11embassy_nrf4gpio4Flex8set_high17hca85bf3df5ae8d49E
00003610 00000014 T _ZN11embassy_nrf4gpio9SealedPin4_pin17h86f18ac308589defE
00002856 00000014 t _ZN11embassy_nrf6gpiote15PortInputFuture3new17h2511a8c6ec13a049E
00003de2 00000014 t _ZN11embassy_nrf6gpiote23handle_gpiote_interrupt28_$u7b$$u7b$closure$u7d$$u7d$17h79ee774a9b5eb5c0E
00003a28 00000014 t _ZN11embassy_nrf6gpiote4init28_$u7b$$u7b$closure$u7d$$u7d$17h635d77e67bbbffbdE
000032ca 00000014 t _ZN121_$LT$embassy_hal_internal..peripheral..PeripheralRef$LT$T$GT$$u20$as$u20$embassy_hal_internal..peripheral..Peripheral$GT$15clone_unchecked17ha94899275fed16e8E
00007266 00000014 T _ZN12embassy_sync14blocking_mutex18Mutex$LT$R$C$T$GT$4lock17h13a679505edacf6fE
00002a3e 00000014 t _ZN16embassy_executor3raw4util19UninitCell$LT$T$GT$13drop_in_place17hcaf4ca6de9f39e37E
0000965c 00000014 t _ZN16embassy_executor3raw5waker4wake17hfe5c171341270fadE
00000646 00000014 t _ZN16embassy_executor3raw7TaskRef3new17h1662bfabef155bf4E
000070ce 00000014 T _ZN19embassy_time_driver13schedule_wake17h36b905f2968eb3d8E
000031f6 00000014 t _ZN30microbit_async_display_example5fonts117_$LT$impl$u20$core..convert..Into$LT$microbit_async_display_example..types..Frame$LT$_$C$_$GT$$GT$$u20$for$u20$u8$GT$4into17h0b58ee4b162ed695E
00000b7a 00000014 t _ZN30microbit_async_display_example7display26LedMatrix$LT$P$C$_$C$_$GT$14set_brightness17h6b9aafaaf56ca5aaE
00007448 00000014 T _ZN44_$LT$$RF$T$u20$as$u20$core..fmt..Display$GT$3fmt17h0282a50597d86e14E
0000b416 00000014 t _ZN44_$LT$$RF$T$u20$as$u20$core..fmt..Display$GT$3fmt17h80a585b34ae46b8aE
00002570 00000014 t _ZN4core3ops8function5FnMut8call_mut17h8c995993caba2854E
00009a8e 00000014 t _ZN4core3str21_$LT$impl$u20$str$GT$3len17h693a289ffc06f9ceE
0000168e 00000014 t _ZN4core3str21_$LT$impl$u20$str$GT$3len17ha6e9c427a1f032a9E
00006e70 00000014 T _ZN4core4cell13Cell$LT$T$GT$3set17h83929fdb7f08304eE
00006e94 00000014 T _ZN4core4cell13Cell$LT$T$GT$7replace17h57dd27963a8f3cf8E
0000719a 00000014 t _ZN4core4task4wake5Waker11wake_by_ref17h91713e15eb8ca436E
00009362 00000014 t _ZN4core4task4wake8RawWaker3new17hdc549fe110245ae2E
00007d98 00000014 T _ZN4core5slice29_$LT$impl$u20$$u5b$T$u5d$$GT$8is_empty17h436190a4a789108dE
00006ea8 00000014 T _ZN4core6option15Option$LT$T$GT$7is_none17h9bec77f17823cacbE
00002da8 00000014 t _ZN4core6result19Result$LT$T$C$E$GT$5is_ok17h6b8f9933727becb9E
000080ee 00000014 T _ZN5defmt8encoding7Encoder5write17h7862f6bf3061c978E
000071f8 00000014 t _ZN62_$LT$core..task..wake..Waker$u20$as$u20$core..clone..Clone$GT$5clone17h84df8f04e93435ecE
00007434 00000014 t _ZN65_$LT$core..task..wake..Waker$u20$as$u20$core..ops..drop..Drop$GT$4drop17hf3926ca1fe210bc6E
0000550c 00000014 t _ZN66_$LT$core..cell..BorrowRefMut$u20$as$u20$core..ops..drop..Drop$GT$4drop17h234c7ee3dabe02c9E
0000332a 00000014 t _ZN66_$LT$T$u20$as$u20$embassy_hal_internal..peripheral..Peripheral$GT$15clone_unchecked17h97aec751cd94acfaE
000067d0 00000014 T _ZN69_$LT$core..pin..Pin$LT$Ptr$GT$$u20$as$u20$core..ops..deref..Deref$GT$5deref17ha0fd592b724e82a1E
00003478 00000014 T _ZN69_$LT$core..pin..Pin$LT$Ptr$GT$$u20$as$u20$core..ops..deref..Deref$GT$5deref17hbfffb8d36e7273b9E
000067e4 00000014 T _ZN72_$LT$core..pin..Pin$LT$Ptr$GT$$u20$as$u20$core..ops..deref..DerefMut$GT$9deref_mut17h273f8e7a3e2b34adE
00003fae 00000016 t _ZN11embassy_nrf10uicr_write17h4a6af9e289b36357E
000032de 00000016 t _ZN20embassy_hal_internal10peripheral10Peripheral8into_ref17h33e1102632a9a9bbE
00002bd0 00000016 t _ZN30microbit_async_display_example5types18Frame$LT$_$C$_$GT$3new17h549354db15c6f16eE
00006e3a 00000016 T _ZN4core3cmp3min17hcb13f8d3124a6ce4E
00009a56 00000016 t _ZN4core3num21_$LT$impl$u20$u16$GT$11to_le_bytes17h777a07ff0b507e2bE
00007a46 00000016 t _ZN4core4sync6atomic11AtomicUsize4load17hfe561a44da5776a8E
00008d3e 00000016 T _ZN4core4sync6atomic18AtomicPtr$LT$T$GT$4load17h0c708234ebce0a48E
0000549e 00000016 t _ZN4core4sync6atomic9AtomicU324load17hac04ba279cff7a80E
0000a42c 00000016 T _ZN4core9panicking9panic_fmt17h24455ea0bcd5a24aE
000020be 00000016 t _ZN59_$LT$F$u20$as$u20$core..future..into_future..IntoFuture$GT$11into_future17h3559e0cd8cd639c6E
00002542 00000016 t _ZN5defmt5impls10primitives57_$LT$impl$u20$defmt..traits..Format$u20$for$u20$$RF$T$GT$12_format_data17hf97a35e56888da7bE
00002068 00000016 t _ZN63_$LT$I$u20$as$u20$core..iter..traits..collect..IntoIterator$GT$9into_iter17h9839e29032e1f0c6E
00006338 00000016 T _ZN63_$LT$I$u20$as$u20$core..iter..traits..collect..IntoIterator$GT$9into_iter17ha172f06b816b1a2fE
20000000 00000018 d _ZN11embassy_nrf11time_driver6DRIVER17hf4e310d07e231df6E
00003f96 00000018 T _ZN11embassy_nrf6gpiote41_$LT$impl$u20$embassy_nrf..gpio..Flex$GT$12wait_for_low17hda7114f5a0e980eaE
00003f7e 00000018 T _ZN11embassy_nrf6gpiote42_$LT$impl$u20$embassy_nrf..gpio..Input$GT$12wait_for_low17hbef67e97154e93c2E
0000720c 00000018 T _ZN122_$LT$embassy_sync..blocking_mutex..raw..CriticalSectionRawMutex$u20$as$u20$embassy_sync..blocking_mutex..raw..RawMutex$GT$4lock17h3a878c52ebdabebaE
0000a21a 00000018 T _ZN126_$LT$cortex_m..critical_section..single_core_critical_section..SingleCoreCriticalSection$u20$as$u20$critical_section..Impl$GT$7release17hca962cb97a73e5c6E
0000727a 00000018 T _ZN12embassy_sync14blocking_mutex18Mutex$LT$R$C$T$GT$4lock17hf603db56d9413de3E
00007292 00000018 T _ZN12embassy_sync14blocking_mutex18Mutex$LT$R$C$T$GT$4lock28_$u7b$$u7b$closure$u7d$$u7d$17h23acb6a8048aba8dE
00009644 00000018 t _ZN16embassy_executor3raw5waker5clone17hc3c5b7225760eecbE
000030ee 00000018 t _ZN20embassy_hal_internal10peripheral10Peripheral8into_ref17hbeca4ff3406c5260E
0000999e 00000018 T _ZN44_$LT$$RF$T$u20$as$u20$core..fmt..Display$GT$3fmt17h36c959551a7cc780E
0000713c 00000018 T _ZN4core3ptr50drop_in_place$LT$critical_section..with..Guard$GT$17h82a7466148a2f4a1E
00007a5c 00000018 t _ZN4core4sync6atomic11AtomicUsize5store17h185ab23ce76d668aE
00008ec6 00000018 T _ZN4core4sync6atomic18AtomicPtr$LT$T$GT$5store17hadc1ddd897cd6c18E
000054b4 00000018 t _ZN4core4sync6atomic9AtomicU325store17hf2a9edd2b7459dedE
00007660 00000018 T _ZN88_$LT$defmt..impls..adapter..Display2Format$LT$T$GT$$u20$as$u20$defmt..traits..Format$GT$12_format_data17h774920d86c0cf38eE
0000638a 00000018 T _ZN8cortex_m10peripheral3scb43_$LT$impl$u20$cortex_m..peripheral..SCB$GT$9sys_reset28_$u7b$$u7b$closure$u7d$$u7d$17h20f668255436af6dE
0000e654 00000018 r .Lanon.12cc1d9fe6f1b1b4c9d72ed1b08691ce.10
0000eb38 00000018 r .Lanon.2642cffa3caea40eecf91712b6f521b7.222
0000ece0 00000018 r .Lanon.2642cffa3caea40eecf91712b6f521b7.436
00003066 0000001a t _ZN11embassy_nrf4gpio4Flex3new17hb5ba73ecdff41566E
00003302 0000001a t _ZN20embassy_hal_internal10peripheral22PeripheralRef$LT$T$GT$8map_into17head8db7c9afbb958E
00001f88 0000001a t _ZN30microbit_async_display_example18__cortex_m_rt_main17h00ef583cce6b19d8E
00001f28 0000001a t _ZN30microbit_async_display_example18__cortex_m_rt_main28_$u7b$$u7b$closure$u7d$$u7d$17h896f7c19bfe0cb50E
00001f42 0000001a t _ZN30microbit_async_display_example21____embassy_main_task17h310dce9c875c5abdE
000001d6 0000001a t _ZN30microbit_async_display_example5types6Bitmap5empty17h671b31d8a4f10c17E
000027b6 0000001a t _ZN4core3ptr273drop_in_place$LT$embassy_futures..select..Select$LT$embassy_nrf..gpiote..$LT$impl$u20$embassy_nrf..gpio..Input$GT$..wait_for_low..$u7b$$u7b$closure$u7d$$u7d$$C$embassy_nrf..gpiote..$LT$impl$u20$embassy_nrf..gpio..Input$GT$..wait_for_low..$u7b$$u7b$closure$u7d$$u7d$$GT$$GT$17h39035fe5402c4c5aE
000086dc 0000001a T _ZN4core3ptr8non_null16NonNull$LT$T$GT$13new_unchecked17haa5f16f4f157b762E
0000747a 0000001a t _ZN4core4sync6atomic10AtomicBool5store17h213692616c73e228E
000088f8 0000001a t _ZN4core4sync6atomic10AtomicBool5store17h6e5938d8ab2b30dbE
00007a2c 0000001a t _ZN4core4sync6atomic10AtomicBool5store17hc725cbc8f59520dbE
00003396 0000001a t _ZN4core4sync6atomic10AtomicBool5store17hde2be9a0f56795adE
00002d8e 0000001a t _ZN4core6result19Result$LT$T$C$E$GT$2ok17h56b6b61e96f771c7E
0000a2e6 0000001a T _ZN63_$LT$core..cell..BorrowMutError$u20$as$u20$core..fmt..Debug$GT$3fmt17h38e9279fc590690dE
00006ece 0000001a T _ZN78_$LT$core..ptr..non_null..NonNull$LT$T$GT$$u20$as$u20$core..cmp..PartialEq$GT$2eq17h4c5358c8e9c7f4b4E
0000857a 0000001a t _ZN9defmt_rtt10RttEncoder5write17h1a13053a5e9808c7E
00005f0e 0000001c t _ZN11embassy_nrf11time_driver4init17hb4b4f9d91b178c68E
000059c8 0000001c t _ZN11embassy_nrf11time_driver9RtcDriver11next_period28_$u7b$$u7b$closure$u7d$$u7d$28_$u7b$$u7b$closure$u7d$$u7d$17hba303b972ed50424E
00005aec 0000001c t _ZN11embassy_nrf11time_driver9RtcDriver13trigger_alarm28_$u7b$$u7b$closure$u7d$$u7d$17hedacc254e3e7d208E
00005d7e 0000001c t _ZN11embassy_nrf11time_driver9RtcDriver9set_alarm28_$u7b$$u7b$closure$u7d$$u7d$17h368c68a79e9c801dE
00005dbc 0000001c t _ZN11embassy_nrf11time_driver9RtcDriver9set_alarm28_$u7b$$u7b$closure$u7d$$u7d$17he1f12dec6f403403E
00005dd8 0000001c t _ZN11embassy_nrf11time_driver9RtcDriver9set_alarm28_$u7b$$u7b$closure$u7d$$u7d$17hfc785dcaf6a579beE
000072aa 0000001c T _ZN12embassy_sync14blocking_mutex18Mutex$LT$R$C$T$GT$4lock28_$u7b$$u7b$closure$u7d$$u7d$17h8384f6064654c7a6E
000094ce 0000001c t _ZN16embassy_executor3raw9run_queue8RunQueue3new17h640c60947bf54114E
00002e08 0000001c t _ZN30microbit_async_display_example6button21handle_button_a_press17hee6c5341e3c2e2baE
00002e24 0000001c t _ZN30microbit_async_display_example6button21handle_button_b_press17ha46feb442fbaf9a9E
00000b5e 0000001c t _ZN30microbit_async_display_example7display26LedMatrix$LT$P$C$_$C$_$GT$5apply17ha4d902a50f6e9c9dE
00002686 0000001c t _ZN4core3ptr124drop_in_place$LT$microbit_async_display_example..display..LedMatrix$LT$embassy_nrf..gpio..Output$C$5_usize$C$5_usize$GT$$GT$17hafe72f622a6480cbE
00007418 0000001c T _ZN4core3ptr72drop_in_place$LT$core..option..Option$LT$core..task..wake..Waker$GT$$GT$17h03f93c5e6a4faed6E
0000083a 0000001c t _ZN4core4iter6traits8iterator8Iterator9enumerate17h98d390c1ea5f9ce6E
0000541c 0000001c T _ZN4core4iter6traits8iterator8Iterator9enumerate17hcffa451ee7b61e2aE
0000333e 0000001c t _ZN59_$LT$F$u20$as$u20$core..future..into_future..IntoFuture$GT$11into_future17hb4b3c43807099097E
0000a246 0000001c t _ZN8cortex_m8register7primask7Primask9is_active17hcade5a3996d497aaE
00001afc 0000001c t _ZN90_$LT$microbit_async_display_example..board..Microbit$u20$as$u20$core..default..Default$GT$7default17h038694f592831baeE
0000cf6c 0000001c r .Lanon.547fc51a2902d144e8eba21b120b98d9.21
0000c848 0000001c r .Lanon.c7ee460fbe5e5cafa85acbbcf56ab5fc.37
0000c708 0000001d r .Lanon.c7ee460fbe5e5cafa85acbbcf56ab5fc.14
00005730 0000001e t _ZN11embassy_nrf11time_driver9RtcDriver4init28_$u7b$$u7b$closure$u7d$$u7d$17hf5df9ed6925e5991E
00004734 0000001e t _ZN11embassy_nrf4init28_$u7b$$u7b$closure$u7d$$u7d$17h817849de6d2b2fb9E
00003a3c 0000001e t _ZN11embassy_nrf6gpiote4init28_$u7b$$u7b$closure$u7d$$u7d$17h845b094dcf585a76E
0000a1fc 0000001e T _ZN126_$LT$cortex_m..critical_section..single_core_critical_section..SingleCoreCriticalSection$u20$as$u20$critical_section..Impl$GT$7acquire17h6e211c7e29f7690fE
0000983e 0000001e T _ZN16embassy_executor3raw8Executor3new17h81cd4d5b68eae0dbE
00000428 0000001e t _ZN16embassy_executor4arch6thread8Executor3run17h88665bb70e3781baE
0000534e 0000001e t _ZN4core3ptr8non_null16NonNull$LT$T$GT$13new_unchecked18precondition_check17h7f3379a344f546a4E
000086f6 0000001e t _ZN4core3ptr8non_null16NonNull$LT$T$GT$13new_unchecked18precondition_check17hbb2a3c8abb9111d9E
0000745c 0000001e t _ZN4core4sync6atomic10AtomicBool4load17h57427c0315431ec1E
00007a0e 0000001e t _ZN4core4sync6atomic10AtomicBool4load17h6530ee351e7698c1E
00009376 0000001e T _ZN4core6option15Option$LT$T$GT$16unwrap_unchecked17h1f9e56b18fa314dbE
00009394 0000001e T _ZN4core6option15Option$LT$T$GT$16unwrap_unchecked17h4693fae279ff0dcbE
00008654 0000001e T _ZN59_$LT$defmt_rtt..Logger$u20$as$u20$defmt..traits..Logger$GT$5write17h9ccfbf226fc2cdc3E
00007e80 0000001e T _ZN5defmt8encoding5inner7Encoder11start_frame28_$u7b$$u7b$closure$u7d$$u7d$17h1b6dbe0b6cc9a828E
00008002 0000001e T _ZN5defmt8encoding5inner7Encoder5write28_$u7b$$u7b$closure$u7d$$u7d$17h0db566b02e2df09aE
000080c0 0000001e T _ZN5defmt8encoding5inner7Encoder9end_frame28_$u7b$$u7b$closure$u7d$$u7d$17hb5708badff841264E
00004752 0000001e t _ZN65_$LT$embassy_nrf..WriteResult$u20$as$u20$core..cmp..PartialEq$GT$2eq17h423fc7d40d935f5bE
0000a2ac 0000001e t _ZN77_$LT$cortex_m..register..primask..Primask$u20$as$u20$core..cmp..PartialEq$GT$2eq17h96b76190c526e1d8E
00008594 0000001e t _ZN9defmt_rtt10RttEncoder5write28_$u7b$$u7b$closure$u7d$$u7d$17h615a2c54f6a9a3d8E
0000855c 0000001e t _ZN9defmt_rtt10RttEncoder7acquire28_$u7b$$u7b$closure$u7d$$u7d$17hbb90341c3a2d7637E
00008624 0000001e t _ZN9defmt_rtt10RttEncoder7release28_$u7b$$u7b$closure$u7d$$u7d$17he7b1974c82f8d4bcE
00007224 00000020 T _ZN122_$LT$embassy_sync..blocking_mutex..raw..CriticalSectionRawMutex$u20$as$u20$embassy_sync..blocking_mutex..raw..RawMutex$GT$4lock17h6b3f7c03682e5379E
000047d4 00000020 T _ZN16critical_section4with17h8a0a072561cb3807E
0000967c 00000020 T _ZN16embassy_executor3raw5waker9from_task17hf8dbfc94448a63d2E
000094ae 00000020 T _ZN16embassy_executor4arch6thread8Executor3new17h270c35b6a8c0be72E
000086aa 00000020 T _ZN4core3ptr7mut_ptr31_$LT$impl$u20$$BP$mut$u20$T$GT$6as_ref17hf2abadbcae1fe544E
0000717a 00000020 T _ZN4core4cell13Cell$LT$T$GT$7replace17h7b32bbd167272b0eE
00009ea0 00000020 T _ZN5defmt6export18acquire_and_header17h16cffd26e27c4a0bE
00005d9a 00000022 t _ZN11embassy_nrf11time_driver9RtcDriver9set_alarm28_$u7b$$u7b$closure$u7d$$u7d$17h596f1f5f6e77356eE
00001c6a 00000022 t _ZN5defmt6export3fmt17h656bee50977e5e37E
00001c8c 00000022 t _ZN5defmt6export3fmt17hb6bcda53adefe2a9E
0000762c 00000022 T _ZN5defmt6export3fmt17hd14b83efed30caacE
00004c0a 00000022 t _ZN74_$LT$nrf_pac..inner..gpio..vals..Sense$u20$as$u20$core..cmp..PartialEq$GT$2eq17h381631bc75c37fabE
00005e4e 00000022 T _ZN83_$LT$embassy_nrf..time_driver..RtcDriver$u20$as$u20$embassy_time_driver..Driver$GT$13schedule_wake17hf21d66c8d13a0d31E
0000166c 00000022 t _ZN92_$LT$microbit_async_display_example..display..AnimationError$u20$as$u20$core..fmt..Debug$GT$3fmt17h7010a0dc922b15aeE
0000babc 00000022 r .Lanon.5a577a817502453beb239981ef330a5e.4
0000be08 00000022 r .Lanon.e5db0d0660bc5904c97d5917f5a678eb.15
00006b8e 00000024 T _defmt_timestamp
00006aa8 00000024 T _ZN118_$LT$embassy_time..instant..Instant$u20$as$u20$core..ops..arith..AddAssign$LT$embassy_time..duration..Duration$GT$$GT$10add_assign17hb58207f28b59a87eE
000062b2 00000024 T _ZN20embassy_hal_internal9interrupt12InterruptExt6enable17h3f30f9bbb4a7389fE
00006fa6 00000024 T _ZN24embassy_time_queue_utils16queue_integrated5Queue15next_expiration17haef54b140ae69a08E
00001f5c 00000024 t _ZN30microbit_async_display_example14__embassy_main17h3761b8d6293c33d6E
00001c34 00000024 t _ZN30microbit_async_display_example5board10output_pin17hb5e4c2b744808fb5E
00000eba 00000024 t _ZN30microbit_async_display_example7display26LedMatrix$LT$P$C$_$C$_$GT$6scroll17hb28bce8910432fa3E
00009f5c 00000024 t _ZN49_$LT$usize$u20$as$u20$core..iter..range..Step$GT$17forward_unchecked17h2c68ca476a49ed19E
00004862 00000024 T _ZN4core3ptr13read_volatile17h22ace042caa896b9E
00004886 00000024 T _ZN4core3ptr13read_volatile17h7db4f2efd8efd2bcE
00009faa 00000024 T _ZN4core3ptr13read_volatile17h8c86911cfc86bd1dE
000048aa 00000024 T _ZN4core3ptr13read_volatile17hb1774360b4e696f1E
000048ce 00000024 T _ZN4core3ptr13read_volatile17hd522fb4e1ffa191fE
0000b07e 00000024 T _ZN4core5alloc6layout6Layout19is_size_align_valid17ha9abfdd8dbd267f5E
00009ec0 00000024 T _ZN5defmt6export26acquire_header_and_release17h7ce8ef2ffd00dd1bE
00009f30 00000024 T _ZN5defmt6export8integers3u6417hebbc2548cfde2953E
00009dbe 00000024 T _ZN5defmt6export8integers5usize17hf8375f8f419f193eE
00004784 00000026 T _ZN16critical_section4with17h0933792ccedbd9a3E
00009748 00000026 t _ZN16embassy_executor3raw12SyncExecutor3new17he9cd83bbdee3c62fE
000099b6 00000026 T _ZN4core3fmt2rt8Argument11new_display17h3fe7ab214a2e6d9bE
000049ac 00000026 T _ZN4core3ptr14write_volatile17h0953c3a8be95fceaE
000049d2 00000026 T _ZN4core3ptr14write_volatile17h33b55eb821a50f48E
000049f8 00000026 T _ZN4core3ptr14write_volatile17h3d974517da8aa8e4E
00004a1e 00000026 T _ZN4core3ptr14write_volatile17h3e20ee04c6afb4ffE
00004a44 00000026 T _ZN4core3ptr14write_volatile17h43eb50fae70d6160E
00004a6a 00000026 T _ZN4core3ptr14write_volatile17h6955a4c7eac4c302E
00004a90 00000026 T _ZN4core3ptr14write_volatile17h81ddc699e7059b82E
00004ab6 00000026 T _ZN4core3ptr14write_volatile17hb9b5ca8782afd235E
00004adc 00000026 T _ZN4core3ptr14write_volatile17hc505c8aa9701cd5eE
0000a0b2 00000026 T _ZN4core3ptr14write_volatile17hd1ab43ad884b9eb6E
00004b02 00000026 T _ZN4core3ptr14write_volatile17hd6fc9d6e45be02bdE
00004b28 00000026 T _ZN4core3ptr14write_volatile17hef49abf32a5f7765E
00007154 00000026 T _ZN4core4cell13Cell$LT$T$GT$3set17h1cd9153f83590f50E
00002454 00000026 t _ZN4core4task4wake7Context10from_waker17hb97e09dee403d1d5E
00001fc6 00000026 t _ZN4core5alloc6layout6Layout25from_size_align_unchecked18precondition_check17hc90b318fc1832671E
000093b2 00000026 T _ZN4core6option15Option$LT$T$GT$3map17h202d6545da9b63e5E
000093d8 00000026 T _ZN4core6option15Option$LT$T$GT$3map17hcd104ae9fc16c77aE
0000b1e8 00000026 T _ZN4core9panicking11panic_const23panic_const_div_by_zero17hff1aa7944d63a61dE
0000b20e 00000026 T _ZN4core9panicking11panic_const23panic_const_rem_by_zero17h94d69846dc90841aE
0000b12a 00000026 T _ZN4core9panicking11panic_const24panic_const_add_overflow17he3ca46f2f2ec3678E
0000b176 00000026 T _ZN4core9panicking11panic_const24panic_const_mul_overflow17h506b9e9ec8555105E
0000b1c2 00000026 T _ZN4core9panicking11panic_const24panic_const_shl_overflow17h947041eb91815fb2E
0000b19c 00000026 T _ZN4core9panicking11panic_const24panic_const_shr_overflow17h3b7efafe8b312b78E
0000b150 00000026 T _ZN4core9panicking11panic_const24panic_const_sub_overflow17ha4c339b91653944eE
0000b234 00000026 T _ZN4core9panicking11panic_const28panic_const_async_fn_resumed17hf08d9c560f63ded1E
0000a46a 00000026 T _ZN4core9panicking5panic17h5284cc5a37f28ed9E
00005f7e 00000028 T _embassy_time_schedule_wake
00003080 00000028 t _ZN11embassy_nrf4gpio5Input3new17h1bfec48e2faf3f52E
00002a52 00000028 t _ZN16embassy_executor3raw4util19UninitCell$LT$T$GT$14write_in_place17hfca5611d46463744E
00002734 00000028 t _ZN4core3ptr162drop_in_place$LT$microbit_async_display_example..display..LedMatrix$LT$embassy_nrf..gpio..Output$C$5_usize$C$5_usize$GT$..animate..$u7b$$u7b$closure$u7d$$u7d$$GT$17h4f3b2f4d8ed6f4fbE
0000275c 00000028 t _ZN4core3ptr162drop_in_place$LT$microbit_async_display_example..display..LedMatrix$LT$embassy_nrf..gpio..Output$C$5_usize$C$5_usize$GT$..display..$u7b$$u7b$closure$u7d$$u7d$$GT$17hbd06fe710c393648E
00002b44 00000028 t _ZN4core4bool22_$LT$impl$u20$bool$GT$4then17he2b205a9f9b5d805E
00003416 00000028 t _ZN4core4sync6atomic9AtomicU3216compare_exchange17h08b568de30730aa7E
000032a2 00000028 t _ZN4core5alloc6layout6Layout3new17h392af1b5063bfc40E
0000a442 00000028 T _ZN4core9panicking18panic_nounwind_fmt17hc8d70d9c1bb0d40fE
00007e58 00000028 T _ZN5defmt8encoding5inner7Encoder11start_frame17ha1db11d99e8afb28E
00008406 00000028 t _ZN9defmt_rtt7channel7Channel17host_is_connected17h82d1da889a6eedf1E
0000c1c4 00000028 r .Lanon.2b07d116ccc34a249efb8a88324ec3c3.3
0000c200 00000028 r .Lanon.2b07d116ccc34a249efb8a88324ec3c3.6
0000d458 00000028 r .Lanon.c344c014f1b7d73bf21906a12b1a17ea.37
00004174 0000002a t _ZN11embassy_nrf17uicr_write_masked28_$u7b$$u7b$closure$u7d$$u7d$17h74b6a6b2947ed2deE
0000467c 0000002a t _ZN11embassy_nrf4init28_$u7b$$u7b$closure$u7d$$u7d$17h2f5f1380b7a8dfc8E
00004628 0000002a t _ZN11embassy_nrf4init28_$u7b$$u7b$closure$u7d$$u7d$17h5e1651b8ad957fcdE
00004652 0000002a t _ZN11embassy_nrf4init28_$u7b$$u7b$closure$u7d$$u7d$17hc4470cd00ebec35dE
000047aa 0000002a T _ZN16critical_section4with17h7c7592a294f98abeE
00007112 0000002a T _ZN16critical_section4with17ha5883856b0e0641dE
000047f4 0000002a T _ZN16critical_section4with17hfd5936fb618fcb9aE
00009f80 0000002a t _ZN4core3num23_$LT$impl$u20$usize$GT$13unchecked_add18precondition_check17h04c6e41abfd69131E
0000a088 0000002a T _ZN4core3ptr14write_volatile17h049177a1e39cbfb2E
00008714 0000002a T _ZN4core3ptr8non_null16NonNull$LT$T$GT$3new17haaad3012ebab8153E
0000537e 0000002a T _ZN4core4cell16RefCell$LT$T$GT$10borrow_mut17h3473d87c90e6635aE
0000bd1c 0000002b r .Lanon.e5db0d0660bc5904c97d5917f5a678eb.1
00009474 0000002c T __pender
000039fc 0000002c t _ZN11embassy_nrf6gpiote4init28_$u7b$$u7b$closure$u7d$$u7d$17haf4c64173f1fff3dE
000076d6 0000002c T _ZN11panic_probe10hard_fault17hfcaa2040a9819e11E
00006acc 0000002c T _ZN12embassy_time5timer5Timer5after17h90fc56a887000710E
00002810 0000002c t _ZN4core3ptr67drop_in_place$LT$$u5b$embassy_nrf..gpio..Output$u3b$$u20$5$u5d$$GT$17h1a1120b6b564e74dE
00006d40 0000002c T _ZN4core5slice4iter16IterMut$LT$T$GT$3new17ha9f7bd51295dcb61E
00000884 0000002c t _ZN4core5slice4iter16IterMut$LT$T$GT$3new17hd287c3811530aa19E
00007dac 0000002c T _ZN4core5slice4iter87_$LT$impl$u20$core..iter..traits..collect..IntoIterator$u20$for$u20$$RF$$u5b$T$u5d$$GT$9into_iter17he5264ccf79942584E
0000a490 0000002c T _ZN4core9panicking14panic_nounwind17h5e77e7d8ad1838b7E
00009e24 0000002c T _ZN5defmt6export4istr17h6a3148ca5bdcd2a2E
000035aa 0000002e T _ZN11embassy_nrf4gpio4Flex19set_as_disconnected28_$u7b$$u7b$closure$u7d$$u7d$17hbdd07436a3650c52E
00002eea 0000002e t _ZN16critical_section4with17had406faee0062bd7E
000054cc 0000002e T _ZN4core5slice4iter13Iter$LT$T$GT$3new17h111c877bf7db799bE
00000856 0000002e t _ZN4core5slice4iter13Iter$LT$T$GT$3new17ha012cd68c91985feE
000008b0 0000002e t _ZN4core5slice4iter16IterMut$LT$T$GT$3new17hfd0a6c09fb961270E
00009df6 0000002e T _ZN5defmt6export3str17h36a62e65d7ae988eE
0000a262 0000002e t _ZN8cortex_m8register7primask4read17h5200c3282b26550fE
0000b6e4 00000030 t __udivmoddi4
20000020 00000030 D _SEGGER_RTT
000070e2 00000030 T _ZN16critical_section4with17h1e29f6925bb3b9ffE
00006282 00000030 T _ZN20embassy_hal_internal9interrupt12InterruptExt12set_priority17h1d99e41214a8ae7aE
000012c8 00000030 t _ZN30microbit_async_display_example7display26AnimationData$LT$_$C$_$GT$3len17hdbb05d4ecc74d999E
000079ae 00000030 T _ZN4core3cmp3Ord3min17h128d512d1cb2c35dE
000079de 00000030 T _ZN4core3fmt9Arguments9new_const17h679986b37acb50eeE
00002626 00000030 t _ZN4core3ptr111drop_in_place$LT$microbit_async_display_example..button..handle_button_a_press..$u7b$$u7b$closure$u7d$$u7d$$GT$17ha00e66515095156bE
00002656 00000030 t _ZN4core3ptr111drop_in_place$LT$microbit_async_display_example..button..handle_button_b_press..$u7b$$u7b$closure$u7d$$u7d$$GT$17h4fdc53954e00fc5dE
000026a2 00000030 t _ZN4core3ptr125drop_in_place$LT$embassy_nrf..gpiote..$LT$impl$u20$embassy_nrf..gpio..Flex$GT$..wait_for_low..$u7b$$u7b$closure$u7d$$u7d$$GT$17h498afd1fb67bb777E
000026d2 00000030 t _ZN4core3ptr126drop_in_place$LT$embassy_nrf..gpiote..$LT$impl$u20$embassy_nrf..gpio..Input$GT$..wait_for_low..$u7b$$u7b$closure$u7d$$u7d$$GT$17h3f570073102ce1e6E
000062f6 00000030 T _ZN4core5array98_$LT$impl$u20$core..iter..traits..collect..IntoIterator$u20$for$u20$$RF$$u5b$T$u3b$$u20$N$u5d$$GT$9into_iter17h3124a1a8f2a235caE
00007738 00000032 t _ZN106_$LT$core..ops..range..Range$LT$usize$GT$$u20$as$u20$core..slice..index..SliceIndex$LT$$u5b$T$u5d$$GT$$GT$13get_unchecked18precondition_check17hfe133c8fb5383946E
00003db0 00000032 t _ZN11embassy_nrf6gpiote23handle_gpiote_interrupt28_$u7b$$u7b$closure$u7d$$u7d$17h8eca5793e8dc4c89E
00002938 00000032 t _ZN11embassy_nrf6gpiote41_$LT$impl$u20$embassy_nrf..gpio..Flex$GT$12wait_for_low28_$u7b$$u7b$closure$u7d$$u7d$28_$u7b$$u7b$closure$u7d$$u7d$17h50b0b5805d768ae4E
0000980c 00000032 t _ZN16embassy_executor3raw12SyncExecutor4poll28_$u7b$$u7b$closure$u7d$$u7d$17hf6b41a7c911f0e0bE
0000976e 00000032 T _ZN16embassy_executor3raw12SyncExecutor5spawn17h5709113c7670fb89E
00009a24 00000032 T _ZN4core3fmt9Arguments6new_v117h831b19bba454c7e5E
000025f4 00000032 t _ZN4core3ptr107drop_in_place$LT$microbit_async_display_example..button..show_button_press..$u7b$$u7b$closure$u7d$$u7d$$GT$17h71455d588d482409E
00002702 00000032 t _ZN4core3ptr161drop_in_place$LT$microbit_async_display_example..display..LedMatrix$LT$embassy_nrf..gpio..Output$C$5_usize$C$5_usize$GT$..scroll..$u7b$$u7b$closure$u7d$$u7d$$GT$17h85843f94cba3737aE
00002784 00000032 t _ZN4core3ptr172drop_in_place$LT$microbit_async_display_example..display..LedMatrix$LT$embassy_nrf..gpio..Output$C$5_usize$C$5_usize$GT$..scroll_with_speed..$u7b$$u7b$closure$u7d$$u7d$$GT$17h16dab7023a742d18E
00009ee4 00000032 T _ZN60_$LT$defmt..export..FmtWrite$u20$as$u20$core..fmt..Write$GT$9write_str17h0af068b63453b811E
00003e98 00000032 t _ZN78_$LT$embassy_nrf..gpiote..PortInputFuture$u20$as$u20$core..ops..drop..Drop$GT$4drop28_$u7b$$u7b$closure$u7d$$u7d$17h518974b3ed3634eaE
0000574e 00000034 t _ZN11embassy_nrf11time_driver9RtcDriver4init28_$u7b$$u7b$closure$u7d$$u7d$17hb3253f45cacc3a96E
00002be6 00000034 t _ZN30microbit_async_display_example5types18Frame$LT$_$C$_$GT$5clear17h7095c9faaf3a5846E
0000a300 00000034 T _ZN4core4cell22panic_already_borrowed17h6cb71ddacd41e154E
00009cc2 00000034 T _ZN4core6result19Result$LT$T$C$E$GT$2ok17hcfbcb115a356bdadE
00003d7a 00000036 t _ZN11embassy_nrf6gpiote23handle_gpiote_interrupt28_$u7b$$u7b$closure$u7d$$u7d$17hb38ee3fb2b6a1f6eE
00007702 00000036 t _ZN11panic_probe11print_defmt5print17h31d7a57d972cd14cE
00000fbc 00000036 t _ZN30microbit_async_display_example7display26LedMatrix$LT$P$C$_$C$_$GT$17scroll_with_speed17hda38a3c09c0ac63dE
000093fe 00000036 T _ZN4core6result19Result$LT$T$C$E$GT$2ok17h9b73cde2f1bbd24fE
00000008 00000038 R __EXCEPTIONS
00003572 00000038 t _ZN11embassy_nrf4gpio4Flex19set_as_disconnected17h119bb2b76b7dc3c6E
000099dc 00000038 T _ZN4core3fmt5Write10write_char17hb4d231858ec0b709E
0000a334 00000038 T _ZN4core6option13expect_failed17hf682f50f2caa2db5E
000067f8 0000003a T _ZN12embassy_time5delay9block_for17hffec92adb099cf68E
0000058e 0000003a t _ZN16embassy_executor3raw22AvailableTask$LT$F$GT$15initialize_impl17hb60128c8430b2e48E
00002c1a 0000003a t _ZN30microbit_async_display_example5types18Frame$LT$_$C$_$GT$6is_set17hf08d897d8d086efdE
0000a4bc 0000003a T _ZN4core9panicking14panic_explicit17hd41be345c3087614E
00005594 0000003c t _ZN11embassy_nrf11time_driver8calc_now17h69316a6e0d867fafE
00006564 0000003c T _ZN4core3cmp10PartialOrd2lt17h4bbb5a114439107eE
0000a4f8 0000003c T _ZN4core9panicking18panic_bounds_check17hbfa4b59d350ae7c0E
0000634e 0000003c t _ZN8cortex_m10peripheral3scb43_$LT$impl$u20$cortex_m..peripheral..SCB$GT$9sys_reset17h00ad1bbb43f809c7E
0000dc04 0000003d r .Lanon.de043f8522eeaf755c64980e469d8f89.20
000068d4 0000003e T _ZN12embassy_time8duration8Duration11checked_div17h687a26f6402f5c7eE
00002dca 0000003e t _ZN30microbit_async_display_example6button17show_button_press17h858d11b7128cd875E
0000b42a 0000003e T _ZN4core5slice5index26slice_start_index_len_fail8do_panic7runtime17hbc22bef2b91ccf62E
0000826c 0000003e t _ZN9defmt_rtt7channel7Channel17nonblocking_write17hcb7babfdc5d38901E
00000100 0000003e T Reset
00003532 00000040 T _ZN11embassy_nrf4gpio12convert_pull17hab0fd26784caef35E
00003624 00000040 T _ZN11embassy_nrf4gpio9SealedPin5block17h8fbf887b0e8ca04fE
20000054 00000040 B _ZN11embassy_nrf6gpiote14CHANNEL_WAKERS17h37000a83776024dbE
0000207e 00000040 t _ZN15embassy_futures6select6select17hf183cd5b3a37f702E
00000d30 00000040 t _ZN30microbit_async_display_example7display26LedMatrix$LT$P$C$_$C$_$GT$7display17h2bca18fd9dbaada7E
000065a0 00000040 t _ZN4core3cmp5impls55_$LT$impl$u20$core..cmp..PartialOrd$u20$for$u20$u64$GT$11partial_cmp17h5084ec0c5c6390bbE
00003e58 00000040 T _ZN78_$LT$embassy_nrf..gpiote..PortInputFuture$u20$as$u20$core..ops..drop..Drop$GT$4drop17h678e283db9915948E
00009434 00000040 T _ZN8cortex_m10peripheral4nvic44_$LT$impl$u20$cortex_m..peripheral..NVIC$GT$7request17h8cddf0fced7bd9cbE
000024c0 00000042 t _ZN11embassy_nrf4gpio4Flex13set_as_output17h566bd5c4dfe7f7e6E
00002ea8 00000042 t _ZN16embassy_executor7spawner7Spawner5spawn17hc2fd789850740ad9E
000010d4 00000042 t _ZN30microbit_async_display_example7display26LedMatrix$LT$P$C$_$C$_$GT$7animate17hfb5f31c83fb16f0fE
00005f2a 00000042 T _ZN70_$LT$embassy_nrf..config..Config$u20$as$u20$core..default..Default$GT$7default17hf5f331165a1fac15E
000055d0 00000044 t _ZN11embassy_nrf11time_driver9compare_n17hd4d2a513edd2265dE
00005fb0 00000044 t _ZN11embassy_nrf4chip11Peripherals12take_with_cs17hd69b02f29f121fd6E
00005000 00000044 t _ZN11embassy_nrf4chip96_$LT$impl$u20$embassy_nrf..gpio..SealedPin$u20$for$u20$embassy_nrf..chip..peripherals..P0_11$GT$8pin_port17ha8514a72034c7481E
00005044 00000044 t _ZN11embassy_nrf4chip96_$LT$impl$u20$embassy_nrf..gpio..SealedPin$u20$for$u20$embassy_nrf..chip..peripherals..P0_14$GT$8pin_port17hf48498bef11bf6dcE
00005088 00000044 t _ZN11embassy_nrf4chip96_$LT$impl$u20$embassy_nrf..gpio..SealedPin$u20$for$u20$embassy_nrf..chip..peripherals..P0_15$GT$8pin_port17hc7a64c13d1a7181eE
000050cc 00000044 t _ZN11embassy_nrf4chip96_$LT$impl$u20$embassy_nrf..gpio..SealedPin$u20$for$u20$embassy_nrf..chip..peripherals..P0_19$GT$8pin_port17h794175a3d2761997E
00005110 00000044 t _ZN11embassy_nrf4chip96_$LT$impl$u20$embassy_nrf..gpio..SealedPin$u20$for$u20$embassy_nrf..chip..peripherals..P0_21$GT$8pin_port17hb0afb392642fc6ebE
00005154 00000044 t _ZN11embassy_nrf4chip96_$LT$impl$u20$embassy_nrf..gpio..SealedPin$u20$for$u20$embassy_nrf..chip..peripherals..P0_22$GT$8pin_port17hf910bdf18bcea23fE
00005198 00000044 t _ZN11embassy_nrf4chip96_$LT$impl$u20$embassy_nrf..gpio..SealedPin$u20$for$u20$embassy_nrf..chip..peripherals..P0_23$GT$8pin_port17h358d9d3716d79d19E
000051dc 00000044 t _ZN11embassy_nrf4chip96_$LT$impl$u20$embassy_nrf..gpio..SealedPin$u20$for$u20$embassy_nrf..chip..peripherals..P0_24$GT$8pin_port17h31bfae696801fae9E
00005220 00000044 t _ZN11embassy_nrf4chip96_$LT$impl$u20$embassy_nrf..gpio..SealedPin$u20$for$u20$embassy_nrf..chip..peripherals..P0_28$GT$8pin_port17hddf99687988b51b9E
00005264 00000044 t _ZN11embassy_nrf4chip96_$LT$impl$u20$embassy_nrf..gpio..SealedPin$u20$for$u20$embassy_nrf..chip..peripherals..P0_30$GT$8pin_port17hd3d83ef40fcdd660E
000052a8 00000044 t _ZN11embassy_nrf4chip96_$LT$impl$u20$embassy_nrf..gpio..SealedPin$u20$for$u20$embassy_nrf..chip..peripherals..P0_31$GT$8pin_port17h2b32ec663cfbd7daE
000052ec 00000044 t _ZN11embassy_nrf4chip96_$LT$impl$u20$embassy_nrf..gpio..SealedPin$u20$for$u20$embassy_nrf..chip..peripherals..P1_05$GT$8pin_port17hc01e6f02c224c265E
0000969c 00000044 T _ZN16embassy_executor3raw5waker15task_from_waker17h12439a98522045fbE
00006520 00000044 T _ZN4core3cmp10PartialOrd2le17hd86e12ae1182a6c9E
0000481e 00000044 T _ZN4core3cmp3Ord3max17h3ace5c9a00b1badbE
00006df6 00000044 T _ZN4core3cmp3Ord3min17h658d976bee5822d2E
00006770 00000044 T _ZN4core6option15Option$LT$T$GT$6expect17hc5bc85008021a2f0E
00000962 00000044 t _ZN91_$LT$core..slice..iter..Iter$LT$T$GT$$u20$as$u20$core..iter..traits..iterator..Iterator$GT$8find_map17h591791fb5ca92d1fE
0000776a 00000046 T _ZN110_$LT$core..ops..range..RangeFrom$LT$usize$GT$$u20$as$u20$core..slice..index..SliceIndex$LT$$u5b$T$u5d$$GT$$GT$5index17hcc19f1685f67a3cdE
0000247a 00000046 t _ZN11embassy_nrf4gpio4Flex12set_as_input17h65c3916afa65d5b7E
000030a8 00000046 t _ZN11embassy_nrf4gpio6Output3new17hd692aeb55207d18bE
000046ee 00000046 t _ZN11embassy_nrf4init28_$u7b$$u7b$closure$u7d$$u7d$17h3112f2de68da71ccE
00000548 00000046 t _ZN16embassy_executor3raw21TaskPool$LT$F$C$_$GT$3new17h9cf8f319d5268cb1E
0000a96c 00000046 t _ZN4core3fmt9Formatter12pad_integral12write_prefix17hbee2c2faf78a9d07E
00006a60 00000048 T _ZN112_$LT$embassy_time..instant..Instant$u20$as$u20$core..ops..arith..Add$LT$embassy_time..duration..Duration$GT$$GT$3add17h1e8ed146d555fbf8E
000046a6 00000048 t _ZN11embassy_nrf4init28_$u7b$$u7b$closure$u7d$$u7d$17h2f896961792aba52E
00006a0a 00000048 T _ZN12embassy_time7instant7Instant11checked_add17h755b25d32fc75464E
00002e60 00000048 t _ZN16embassy_executor7spawner7Spawner10must_spawn17hfa47033edf7cc1b8E
000066e0 00000048 T _ZN4core6option15Option$LT$T$GT$3map17h37a50c284656d463E
00006728 00000048 T _ZN4core6option15Option$LT$T$GT$3map17he6d6669ab592c23bE
000071ae 0000004a t _ZN4core4task4wake5Waker9will_wake17h431270091df11298E
0000a534 0000004a T _ZN4core6result13unwrap_failed17h5f8fbd930397df6cE
0000a1b2 0000004a T _ZN89_$LT$core..ops..range..Range$LT$T$GT$$u20$as$u20$core..iter..range..RangeIteratorImpl$GT$9spec_next17h98a1a367499b061eE
0000768a 0000004c T _RNvCscSpY9Juk0HT_7___rustc17rust_begin_unwind
000037d2 0000004c T _ZN11embassy_nrf4gpio9SealedPin7set_low17h501ef9dd8766358fE
000036e8 0000004c T _ZN11embassy_nrf4gpio9SealedPin8set_high17hb709c3117f361c5eE
00006832 0000004c T _ZN12embassy_time8duration8Duration9from_secs17h0d65bcb0ec475bedE
000069bc 0000004e T _ZN12embassy_time7instant7Instant9as_micros17h4d235fdcfb24be8fE
00009e50 00000050 T _ZN5defmt6export7display17h66a6ad0d9a4f8d3fE
00002b7e 00000052 t _ZN30microbit_async_display_example5types18Frame$LT$_$C$_$GT$5empty17h8a63f91ef58e935cE
000001f0 00000054 t _ZN30microbit_async_display_example5types6Bitmap9clear_all17h8a2ff72cfaf55b17E
0000687e 00000056 T _ZN12embassy_time8duration8Duration11from_micros17hfa619c00dc798ed6E
000094ea 00000058 t _ZN16embassy_executor3raw9run_queue8RunQueue7enqueue28_$u7b$$u7b$closure$u7d$$u7d$17h18cf72d8a5a4f2b1E
000053a8 00000058 T _ZN4core4cell16RefCell$LT$T$GT$14try_borrow_mut17hc9b41c3ac974cec3E
0000552e 00000058 T _ZN91_$LT$core..slice..iter..Iter$LT$T$GT$$u20$as$u20$core..iter..traits..iterator..Iterator$GT$4next17h17c875aafe08635bE
00008112 00000058 T _ZN91_$LT$core..slice..iter..Iter$LT$T$GT$$u20$as$u20$core..iter..traits..iterator..Iterator$GT$4next17hd3831f7670c52ffeE
000009a6 00000058 t _ZN94_$LT$core..slice..iter..IterMut$LT$T$GT$$u20$as$u20$core..iter..traits..iterator..Iterator$GT$4next17h0bfa23dedee62d01E
000009fe 00000058 t _ZN94_$LT$core..slice..iter..IterMut$LT$T$GT$$u20$as$u20$core..iter..traits..iterator..Iterator$GT$4next17h7eb9ceb88457eba8E
00006d6c 00000058 T _ZN94_$LT$core..slice..iter..IterMut$LT$T$GT$$u20$as$u20$core..iter..traits..iterator..Iterator$GT$4next17hbd1eb53e27a36510E
000002e4 0000005a t _ZN30microbit_async_display_example5types6Bitmap10shift_left17h5fb52be716cf284fE
0000033e 0000005a t _ZN30microbit_async_display_example5types6Bitmap11shift_right17h116d0bbee2ff2972E
00005df4 0000005a T _ZN83_$LT$embassy_nrf..time_driver..RtcDriver$u20$as$u20$embassy_time_driver..Driver$GT$3now17h89f5b0d02b75e73bE
00000908 0000005a t _ZN91_$LT$core..slice..iter..Iter$LT$T$GT$$u20$as$u20$core..iter..traits..iterator..Iterator$GT$4next17ha62b596e8603dbbaE
000097a0 0000005c t _ZN16embassy_executor3raw12SyncExecutor5spawn28_$u7b$$u7b$closure$u7d$$u7d$17h3fa3be20c3ec9ee5E
000004da 0000005c t _ZN16embassy_executor3raw21TaskPool$LT$F$C$_$GT$10spawn_impl17h6d46def5e71b4fb0E
00002cd2 0000005e t _ZN30microbit_async_display_example5types18Frame$LT$_$C$_$GT$10shift_left17h5cb7b08e0f66087bE
00002d30 0000005e t _ZN30microbit_async_display_example5types18Frame$LT$_$C$_$GT$11shift_right17h3a54ca669bd30064E
00006222 00000060 T _ZN110_$LT$core..iter..adapters..enumerate..Enumerate$LT$I$GT$$u20$as$u20$core..iter..traits..iterator..Iterator$GT$4next17h2ad050da4e1a0e9aE
00002008 00000060 t _ZN110_$LT$core..iter..adapters..enumerate..Enumerate$LT$I$GT$$u20$as$u20$core..iter..traits..iterator..Iterator$GT$4next17h8bae91d0affa80cfE
00003df6 00000062 T _ZN87_$LT$embassy_nrf..gpiote..BitIter$u20$as$u20$core..iter..traits..iterator..Iterator$GT$4next17hd78d2ea2b33259f0E
0000988e 00000064 T _ZN16embassy_executor3raw9wake_task17haa563adf7cbcfabeE
000020d4 00000064 t _ZN93_$LT$embassy_futures..select..Select$LT$A$C$B$GT$$u20$as$u20$core..future..future..Future$GT$4poll17hfc65bf7486977cc1E
00000a86 00000066 t _ZN30microbit_async_display_example7display26LedMatrix$LT$P$C$_$C$_$GT$3new17hf46a222811fa3cf4E
000033b0 00000066 t _ZN4core4sync6atomic14compiler_fence17h02052c57d8d5e9d5E
00008c30 00000066 t _ZN4core4sync6atomic14compiler_fence17h6f2a5c417daf54bbE
00005438 00000066 t _ZN4core4sync6atomic14compiler_fence17hf091fd9f1354186aE
000063a2 0000006c T _ZN8cortex_m10peripheral4nvic44_$LT$impl$u20$cortex_m..peripheral..NVIC$GT$12set_priority17ha5dcfc803c307399E
000005c8 0000006e t _ZN16embassy_executor3raw22AvailableTask$LT$F$GT$5claim17h480f478892374325E
00002584 00000070 t _ZN4core3ptr103drop_in_place$LT$microbit_async_display_example..____embassy_main_task..$u7b$$u7b$closure$u7d$$u7d$$GT$17h34d488bf9b5b1562E
00000aec 00000072 t _ZN30microbit_async_display_example7display26LedMatrix$LT$P$C$_$C$_$GT$5clear17hb390533ac5a580c4E
000085b2 00000072 t _ZN9defmt_rtt10RttEncoder7release17h1b8570e4096eaea5E
0000816a 00000072 t _ZN9defmt_rtt7channel7Channel9write_all17h75dbe16629d76f8bE
00007372 00000074 T _ZN12embassy_sync9waitqueue12atomic_waker27GenericAtomicWaker$LT$M$GT$4wake28_$u7b$$u7b$closure$u7d$$u7d$17h4737b0cd4bcc2e71E
0000665c 00000076 t _ZN4core3num21_$LT$impl$u20$u64$GT$11checked_div17h2eba14dd85b76b45E
0000068e 0000007a t _ZN16embassy_executor7_export11TaskPoolRef3get28_$u7b$$u7b$closure$u7d$$u7d$17h51e2099415bbea6fE
00000398 0000007a t _ZN30microbit_async_display_example5types6Bitmap2or17h018d5e962f7263c6E
00002a9c 0000007a t _ZN4core3num23_$LT$impl$u20$usize$GT$16next_multiple_of17h71629f7c2fa77519E
00009554 0000007c t _ZN16embassy_executor3raw9run_queue8RunQueue11dequeue_all17h13ad6b04b80f1405E
00007048 0000007c t _ZN24embassy_time_queue_utils16queue_integrated5Queue6retain17ha6e45a2bc9cee3faE
000065e0 0000007c t _ZN4core3num21_$LT$impl$u20$u64$GT$11checked_add17h6f939717df49c9a2E
00006fca 0000007e t _ZN24embassy_time_queue_utils16queue_integrated5Queue15next_expiration28_$u7b$$u7b$closure$u7d$$u7d$17h4940f51c0650d900E
00002c54 0000007e t _ZN30microbit_async_display_example5types18Frame$LT$_$C$_$GT$2or17h2a9318b29343ef4fE
00000158 0000007e t _ZN30microbit_async_display_example5types6Bitmap3new17h79fbfbb6e6733313E
000084de 0000007e t _ZN9defmt_rtt10RttEncoder7acquire17h44d23e3c0a880c76E
00006920 00000080 t _ZN12embassy_time8duration8div_ceil17h314160ecf765c7adE
00007dd8 00000080 t _ZN4core9ub_checks23maybe_is_nonoverlapping7runtime17h70c660d3b0aa9a4fE
000098f2 00000082 t _ZN16embassy_executor3raw9wake_task28_$u7b$$u7b$closure$u7d$$u7d$17hb86b8469d7f90ed9E
0000640e 00000082 T _ZN8cortex_m10peripheral4nvic44_$LT$impl$u20$cortex_m..peripheral..NVIC$GT$6unmask17hb89a7b93dac5583dE
00006490 00000082 T _ZN8cortex_m10peripheral4nvic44_$LT$impl$u20$cortex_m..peripheral..NVIC$GT$6unpend17hd138ceb883a00d66E
00003664 00000084 T _ZN11embassy_nrf4gpio9SealedPin4conf17hac50075134d28c97E
00006af8 00000084 T _ZN75_$LT$embassy_time..timer..Timer$u20$as$u20$core..future..future..Future$GT$4poll17h72b7d707e049386aE
000034ac 00000086 T _ZN11embassy_nrf4gpio13convert_drive17h3eb434d07b49dcd4E
0000b0a2 00000088 T _ZN4core4char7methods15encode_utf8_raw8do_panic7runtime17h125f10c28f518e62E
000072d8 0000008a T _ZN12embassy_sync9waitqueue12atomic_waker27GenericAtomicWaker$LT$M$GT$8register28_$u7b$$u7b$closure$u7d$$u7d$17hfda182e1eb5facafE
000081dc 00000090 t _ZN9defmt_rtt7channel7Channel14blocking_write17hcb94bcd6b4ac97d8E
00000446 00000094 t _ZN16embassy_executor3raw20TaskStorage$LT$F$GT$4poll17ha6c24643d096382aE
0000b63a 00000096 t __aeabi_memcpy8
0000320a 00000098 t _ZN30microbit_async_display_example5fonts119_$LT$impl$u20$core..convert..Into$LT$microbit_async_display_example..types..Frame$LT$_$C$_$GT$$GT$$u20$for$u20$char$GT$4into17h0ed2a7425f60260fE
00008c96 00000098 T _ZN4core4sync6atomic18AtomicPtr$LT$T$GT$12fetch_update17h2e8e6083c56eaf3aE
000012f8 0000009a t _ZN30microbit_async_display_example7display26AnimationData$LT$_$C$_$GT$5frame17h71c87e1aad83913bE
0000381e 0000009e T _ZN11embassy_nrf4gpio9SealedPin7set_low28_$u7b$$u7b$closure$u7d$$u7d$17h17a3364455462179E
00003734 0000009e T _ZN11embassy_nrf4gpio9SealedPin8set_high28_$u7b$$u7b$closure$u7d$$u7d$17h8303a562360cbe0bE
00005e70 0000009e t _ZN83_$LT$embassy_nrf..time_driver..RtcDriver$u20$as$u20$embassy_time_driver..Driver$GT$13schedule_wake28_$u7b$$u7b$closure$u7d$$u7d$17h20bdbf548a4d78a7E
00000244 000000a0 t _ZN30microbit_async_display_example5types6Bitmap6is_set17h5aea258f4b7982f1E
00008020 000000a0 T _ZN5defmt8encoding5inner7Encoder9end_frame17h80a8a74f004f5d36E
00002fc2 000000a4 t _ZN11embassy_nrf4gpio4Flex13set_as_output28_$u7b$$u7b$closure$u7d$$u7d$17h703a1e8664381b5aE
0000296a 000000a4 t _ZN11embassy_nrf6gpiote42_$LT$impl$u20$embassy_nrf..gpio..Input$GT$12wait_for_low28_$u7b$$u7b$closure$u7d$$u7d$17h8ee9a3f34df9471fE
00002f18 000000aa t _ZN11embassy_nrf4gpio4Flex12set_as_input28_$u7b$$u7b$closure$u7d$$u7d$17h78ecabd4ec162755E
0000b25a 000000ae T _ZN4core3fmt3num53_$LT$impl$u20$core..fmt..UpperHex$u20$for$u20$i32$GT$3fmt17hfc0efaf636449e8dE
0000b25a 000000ae T _ZN4core3fmt3num53_$LT$impl$u20$core..fmt..UpperHex$u20$for$u20$u32$GT$3fmt17h09edfbe88a923cefE
0000b25a 000000ae T _ZN4core3fmt3num55_$LT$impl$u20$core..fmt..UpperHex$u20$for$u20$isize$GT$3fmt17hc424b895c4238364E
0000b25a 000000ae T _ZN4core3fmt3num55_$LT$impl$u20$core..fmt..UpperHex$u20$for$u20$usize$GT$3fmt17ha4d3cfdc6c49c0a2E
0000842e 000000b0 t _ZN9defmt_rtt7channel21available_buffer_size17h3ac446cc025a664dE
00003eca 000000b4 T _ZN85_$LT$embassy_nrf..gpiote..PortInputFuture$u20$as$u20$core..future..future..Future$GT$4poll17h8fbbf83609b7505aE
000048f2 000000ba t _ZN4core3ptr13read_volatile18precondition_check17h5518077a310af003E
00009fce 000000ba t _ZN4core3ptr13read_volatile18precondition_check17hb1b8364a0c4ca357E
0000e6dc 000000ba r .Lanon.36182ab82863f906170aba3dd0ad5a05.1
00004b4e 000000bc t _ZN4core3ptr14write_volatile18precondition_check17h72aeb3046dcc2a0fE
0000a0d8 000000bc t _ZN4core3ptr14write_volatile18precondition_check17ha4bad227d179c88aE
00006ee8 000000be T _ZN24embassy_time_queue_utils16queue_integrated5Queue13schedule_wake17h53e1371b1253394dE
00000040 000000c0 R __INTERRUPTS
0000a36c 000000c0 T _ZN73_$LT$core..panic..panic_info..PanicInfo$u20$as$u20$core..fmt..Display$GT$3fmt17h31e6d42fa2f9de00E
00007a74 000000c2 T _ZN4core4sync6atomic11atomic_load17h059e4908f778e4c2E
00008914 000000c2 T _ZN4core4sync6atomic11atomic_load17h51b38bfcafba8eddE
000089d8 000000c2 T _ZN4core4sync6atomic11atomic_load17h9edac1a57922a642E
00006bb4 000000c2 T _ZN4core4sync6atomic11atomic_load17hfcdf5dd0aa4de20eE
0000cde2 000000c7 r .Lanon.547fc51a2902d144e8eba21b120b98d9.5
0000df86 000000c7 r .Lanon.991788cae5f6c04ec8ef682fcc9a57c2.3
00008a9c 000000c8 T _ZN4core4sync6atomic12atomic_store17h05dbdb98fb061a89E
00007cd0 000000c8 T _ZN4core4sync6atomic12atomic_store17h34073bf10e32a997E
00006c78 000000c8 T _ZN4core4sync6atomic12atomic_store17hbbdfeee93a6fa1f8E
00009cf6 000000c8 T _ZN75_$LT$$RF$mut$u20$W$u20$as$u20$core..fmt..Write..write_fmt..SpecWriteFmt$GT$14spec_write_fmt17h8c4bf4379b34f0d1E
0000ebde 000000c8 r .Lanon.2642cffa3caea40eecf91712b6f521b7.296
00007b38 000000ca T _ZN4core4sync6atomic11atomic_load17h3e9e0abd6db66db1E
00007494 000000ca T _ZN4core4sync6atomic11atomic_load17hf89c49ab5f5100ecE
0000312a 000000cc t _ZN30microbit_async_display_example5fonts9frame_5x517h98f96d1f25d21acfE
00007c04 000000cc T _ZN4core4sync6atomic12atomic_store17h1b3e4610626ed9f5E
00007560 000000cc T _ZN4core4sync6atomic12atomic_store17h2047fd04c7112c94E
00008b64 000000cc T _ZN4core4sync6atomic12atomic_store17hfc0a016d91044543E
0000286a 000000ce t _ZN11embassy_nrf6gpiote41_$LT$impl$u20$embassy_nrf..gpio..Flex$GT$12wait_for_low28_$u7b$$u7b$closure$u7d$$u7d$17hc1cde9240cf3c9ccE
000014a6 000000ce t _ZN30microbit_async_display_example7display22Animation$LT$_$C$_$GT$7current17h8c0c9b1294db6a9dE
0000cd10 000000d2 r .Lanon.547fc51a2902d144e8eba21b120b98d9.2
0000deb4 000000d2 r .Lanon.991788cae5f6c04ec8ef682fcc9a57c2.2
0000d7c8 000000d6 r .Lanon.de043f8522eeaf755c64980e469d8f89.0
00000ede 000000de t _ZN30microbit_async_display_example7display26LedMatrix$LT$P$C$_$C$_$GT$6scroll28_$u7b$$u7b$closure$u7d$$u7d$17h10d4be5fd8465005E
00002294 000000e0 t _ZN30microbit_async_display_example6button21handle_button_a_press28_$u7b$$u7b$closure$u7d$$u7d$17h0cdeba80cc131c84E
00002374 000000e0 t _ZN30microbit_async_display_example6button21handle_button_b_press28_$u7b$$u7b$closure$u7d$$u7d$17hd71b09cbe5d58a5dE
00000ff2 000000e2 t _ZN30microbit_async_display_example7display26LedMatrix$LT$P$C$_$C$_$GT$17scroll_with_speed28_$u7b$$u7b$closure$u7d$$u7d$17h9ecf84d48999b150E
0000e7c8 000000e3 r .Lanon.36182ab82863f906170aba3dd0ad5a05.4
0000c990 000000e3 r .Lanon.c172fdc47fa9660231392d1223c8698e.2
0000e934 000000e4 r .Lanon.36182ab82863f906170aba3dd0ad5a05.8
0000cafc 000000e4 r .Lanon.c172fdc47fa9660231392d1223c8698e.6
0000b31a 000000ec t _ZN4core3fmt3num3imp21_$LT$impl$u20$u32$GT$4_fmt17h25a8219fe9562f10E
00001574 000000f8 t _ZN30microbit_async_display_example7display22Animation$LT$_$C$_$GT$4next17ha1934380e637d722E
0000bb60 00000100 r .Lanon.7193a28b7f1bb58bcafff16c0222b3f5.0
000058c6 00000102 t _ZN11embassy_nrf11time_driver9RtcDriver11next_period28_$u7b$$u7b$closure$u7d$$u7d$17h0e605c59246052a8E
000038f8 00000104 t _ZN11embassy_nrf6gpiote4init17hd504f0475aa8367eE
00009bbe 00000104 t _ZN4core5slice3raw18from_raw_parts_mut18precondition_check17h328448cdcbdc952fE
000059e4 00000108 t _ZN11embassy_nrf11time_driver9RtcDriver13trigger_alarm17hab5e0d13597c80fcE
00001392 00000114 t _ZN30microbit_async_display_example7display22Animation$LT$_$C$_$GT$3new17hc349e1509ac35d71E
0000bff5 00000119 r .Lanon.f18f461cb51936039fdb7894c3c7fff4.0
0000e4b0 0000011b r .Lanon.12cc1d9fe6f1b1b4c9d72ed1b08691ce.7
0000d958 0000011b r .Lanon.de043f8522eeaf755c64980e469d8f89.6
00005614 0000011c t _ZN11embassy_nrf11time_driver9RtcDriver4init17hd8c88f7c14be4472E
00001b18 0000011c t _ZN30microbit_async_display_example5board8Microbit3new17h648d50a28a9942e3E
00009aa2 0000011c t _ZN4core4char7methods15encode_utf8_raw17h13e346d1e6ae50ceE
00005782 00000122 t _ZN11embassy_nrf11time_driver9RtcDriver12on_interrupt17h8f43ec524bec9be6E
00000708 00000132 t _ZN16embassy_executor7_export14Arena$LT$_$GT$5alloc17hd3523b6eec755e24E
0000215c 00000138 t _ZN30microbit_async_display_example6button17show_button_press28_$u7b$$u7b$closure$u7d$$u7d$17heb53b11ae83934dcE
00000d70 0000014a t _ZN30microbit_async_display_example7display26LedMatrix$LT$P$C$_$C$_$GT$7display28_$u7b$$u7b$closure$u7d$$u7d$17he7ca901caa01f5a9E
000082aa 0000015c t _ZN9defmt_rtt7channel7Channel10write_impl17h3f5a0a9153c41b56E
00007e9e 00000164 T _ZN5defmt8encoding5inner7Encoder5write17h0000277850e5507bE
0000a57e 0000016e T _ZN4core3fmt5write17h70d6640cc98da3feE
00008d54 00000172 T _ZN4core4sync6atomic18AtomicPtr$LT$T$GT$4swap17h17984b7b855b2f87E
20000094 00000180 b _ZN11embassy_nrf6gpiote11PORT_WAKERS17h3ac5f705ffce9db5E
00008758 000001a0 t _ZN4core4sync6atomic10AtomicBool4swap17h23bc1585152eec94E
00000b8e 000001a2 t _ZN30microbit_async_display_example7display26LedMatrix$LT$P$C$_$C$_$GT$6render17h38b0b998779ccae4E
00003fc4 000001b0 t _ZN11embassy_nrf17uicr_write_masked17h77ba486ba6d7311eE
00001116 000001b2 t _ZN30microbit_async_display_example7display26LedMatrix$LT$P$C$_$C$_$GT$7animate28_$u7b$$u7b$closure$u7d$$u7d$17hb06aa3ac67ad1877E
0000b468 000001c6 t _ZN17compiler_builtins3mem6memcpy17h20ba2a1ad1eb6634E
0000a9b4 000001da T _ZN4core3fmt9Formatter3pad17h2934ce84474981e1E
0000c3e4 000001db r .Lanon.e0ee941c3840e989dd2b24832ea9b099.9
000077b0 000001fe t _ZN4core10intrinsics19copy_nonoverlapping18precondition_check17hb3313395cf925f8eE
00005ff4 00000206 t _ZN11embassy_nrf4chip11Peripherals5steal17hcfaff20028a4b3e4E
00001cb0 0000025c t _ZN30microbit_async_display_example21____embassy_main_task28_$u7b$$u7b$closure$u7d$$u7d$17h5f7f56bc54b55794E
00005b08 00000276 t _ZN11embassy_nrf11time_driver9RtcDriver9set_alarm17h7b0dae1d6878ea29E
0000a6ec 00000280 T _ZN4core3fmt9Formatter12pad_integral17h12ff88d7f2a4971aE
00003a5a 00000320 t _ZN11embassy_nrf6gpiote23handle_gpiote_interrupt17he2c1511239a6ad07E
0000b714 00000360 t _ZN17compiler_builtins3int19specialized_div_rem11u64_div_rem17h70363b08925eab74E
20008220 00000400 B _ZN9defmt_rtt6BUFFER17h83421731965edde1E
000016a4 00000458 t _ZN4core4sync6atomic23atomic_compare_exchange17h00bdad4426f09d8aE
00008ee0 00000458 T _ZN4core4sync6atomic28atomic_compare_exchange_weak17hbf15dc9a6502811cE
000041ac 0000047c T _ZN11embassy_nrf4init17hc121c2a202dc6d4dE
0000aba6 000004d8 T _ZN4core3str5count14do_count_chars17h457216055dd3161cE
2000021c 00008004 B _ZN16embassy_executor7_export5ARENA17h7a91c5a9199e9a13E
